
 Start         Length     Name                   Class
 0002:00000000 00008A8FFH .text                  CODE
 0003:00000000 000002B5AH .rdata                 DATA
 0004:00000000 00002F048H .data                  DATA
 0005:00000000 0000CE290H .rsrc                  DATA


  Address         Publics by Value

 0001:00000000       clearWeaponData
 0001:00000030       clearItemData
 0001:00000050       addWeapon
 0001:00000160       loseWeapon
 0001:00000220       tradeWeapon
 0001:000002D0       addItemData
 0001:00000330       subItemData
 0001:000003C0       moveInventoryCursor
 0001:000006F0       drawInventoryWindow
 0001:00000D10       inventoryLoop
 0001:00000F20       checkForItem
 0001:00000F60       checkForWeapon
 0001:00000FA0       useAmmo
 0001:00001020       addAmmo
 0001:00001090       fillWeaponAmmo
 0001:000010E0       switchWeaponForward
 0001:00001190       switchWeaponBackwards
 0001:00001240       resetSelectedWeapon
 0001:00001270       initBackground
 0001:00001370       updateBackground
 0001:000013D0       drawBackground
 0001:00001412       fixed_bk
 0001:00001472       jmp_402809_case_1
 0001:00001504       jmp_402809_case_2
 0001:0000158C       jmp_402809_case_5
 0001:00001606       jmp_402809_case_6_7
 0001:00001805       jmp_40240B_return
 0001:00001809       jmp_40240B_table
 0001:00001830       drawForeground
 0001:000019B0       checkStarblockBreak
 0001:00001B30       solidTileTwoStageFilterThing
 0001:00001F50       makeSoundAndEffectOnHitWall
 0001:00001FC0       bulletTileCollisionRoofSlope1
 0001:000020B0       bulletTileCollisionRoofSlope2
 0001:000021A0       bulletTileCollisionRoofSlope3
 0001:00002290       bulletTileCollisionRoofSlope4
 0001:00002380       bulletTileCollisionFloorSlope1
 0001:00002470       bulletTileCollisionFloorSlope2
 0001:00002560       bulletTileCollisionFloorSlope3
 0001:00002650       bulletTileCollisionFloorSlope4
 0001:00002740       bulletTileCollisionAlgorithm
 0001:000028D7       jmp_4038D0_case_0_2_3_32_35
 0001:0000291E       jmp_4038D0_case_15_47
 0001:00002965       jmp_4038D0_case_16_48
 0001:000029AC       jmp_4038D0_case_17_49
 0001:000029F3       jmp_4038D0_case_18_50
 0001:00002A3A       jmp_4038D0_case_19_51
 0001:00002A81       jmp_4038D0_case_20_52
 0001:00002AC8       jmp_4038D0_case_21_53
 0001:00002B0C       jmp_4038D0_case_22_54
 0001:00002B4E       jmp_4038D0_default
 0001:00002B95       jmp_4038D0_table
 0001:00002BBD       jmp_4038D0_indirect_table
 0001:00002C00       resetWeapons
 0001:00002C40       countBullets
 0001:00002CB0       countShots
 0001:00002D10       deleteBullet
 0001:00002D80       resetBullets
 0001:00002DC0       renderBullets
 0001:00002E1E       jmp_403E17_case_0
 0001:00002E59       jmp_403E17_case_2
 0001:00002E91       jmp_403E17_case_1
 0001:00002EC9       jmp_403E17_case_3
 0001:00002F69       jmp_403E17_table
 0001:00002F80       createBullet
 0001:00003160       bullet1_Level1Snake
 0001:000031F7       jmp_4041F0_case_0
 0001:00003203       jmp_4041F0_case_1
 0001:0000320F       jmp_4041F0_case_2
 0001:0000321B       jmp_4041F0_case_3
 0001:000033D2       jmp_4041F0_table
 0001:000033F0       bullet2_3_SnakeLevel2_3
 0001:0000347F       jmp_404478_case_0
 0001:0000348B       jmp_404478_case_1
 0001:00003497       jmp_404478_case_2
 0001:000034A3       jmp_404478_case_3
 0001:000034D6       jmp_4044CF_case_0_2
 0001:00003500       jmp_4044CF_case_1_3
 0001:00003547       jmp_404540_case_0
 0001:0000355B       jmp_404540_case_1
 0001:0000356F       jmp_404540_case_2
 0001:00003583       jmp_404540_case_3
 0001:000035AF       jmp_4045A8_case_0_2
 0001:000035E3       jmp_4045A8_case_1_3
 0001:00003769       jmp_404478_table
 0001:00003779       jmp_4044CF_table
 0001:00003789       jmp_404540_table
 0001:00003799       jmp_4045A8_table
 0001:000037B0       bullet4_5_6_PolarStar
 0001:0000382D       fire_Left
 0001:00003839       fire_Up
 0001:00003845       fire_Right
 0001:00003851       fire_Down
 0001:0000388C       jmp_404885_case_0
 0001:00003898       jmp_404885_case_1
 0001:000038A4       jmp_404885_case_2
 0001:000038B0       jmp_404885_case_3
 0001:000038D6       jmp_4048CF_case_0
 0001:000038E2       jmp_4048CF_case_1
 0001:000038EE       jmp_4048CF_case_2
 0001:000038FA       jmp_4048CF_case_3
 0001:000039EE       jmp_Return2
 0001:00003AFA       jmp_404826_table
 0001:00003B0A       jmp_404885_table
 0001:00003B1A       jmp_4048CF_table
 0001:00003B30       bullet7_8_9_Fireball
 0001:00003C6E       jmp_404C67_case_0
 0001:00003C7D       jmp_404C67_case_1
 0001:00003CAB       dir_up_left
 0001:00003CDB       jmp_404C67_case_2
 0001:00003CE7       jmp_404C67_case_3
 0001:00004103       jmp_404C67_table
 0001:00004120       bulletA_B_C_MachineGun
 0001:00004375       jmp_40536E_case_0
 0001:0000439D       jmp_40536E_case_1
 0001:000043C5       jmp_40536E_case_2
 0001:000043EB       jmp_40536E_case_3
 0001:00004583       jmp_40536E_table
 0001:000045A0       bulletD_E_F_MissileLauncher
 0001:00004771       jmp_40576A_case_0_2
 0001:0000477F       jmp_40576A_case_1_3
 0001:000047BC       jmp_4057B5_case_0_2
 0001:000047FA       jmp_4057B5_case_1_3
 0001:000048C7       jmp_4058C0_case_0
 0001:000048DD       jmp_4058C0_case_1
 0001:000048F3       jmp_4058C0_case_2
 0001:00004907       jmp_4058C0_case_3
 0001:00004946       jmp_405937_case_0_2
 0001:00004976       jmp_405937_case_1_3
 0001:00004A6D       jmp_405A66_case_0
 0001:00004A8F       jmp_405A66_case_1
 0001:00004AB0       jmp_405A66_case_2
 0001:00004AD1       jmp_405A66_case_3
 0001:00004D2C       jmp_40576A_table
 0001:00004D3C       jmp_4057B5_table
 0001:00004D4C       jmp_4058C0_table
 0001:00004D5C       jmp_405937_table
 0001:00004D6C       jmp_405A66_table
 0001:00004D80       bullet10_11_12_MissileExplosion
 0001:00004F30       bullet13_BubblerLevel1
 0001:00004FA1       jmp_405F9A_case_0
 0001:00004FAD       jmp_405F9A_case_2
 0001:00004FB9       jmp_405F9A_case_1
 0001:00004FC5       jmp_405F9A_case_3
 0001:00004FE9       jmp_405FE2_case_0
 0001:00004FFA       jmp_405FE2_case_2
 0001:0000500B       jmp_405FE2_case_1
 0001:0000501C       jmp_405FE2_case_3
 0001:0000516C       jmp_405F9A_table
 0001:0000517C       jmp_405FE2_table
 0001:00005190       bullet14_BubllerLevel2
 0001:0000527B       jmp_406274_case_0
 0001:0000529F       jmp_406274_case_2
 0001:000052C3       jmp_406274_case_1
 0001:000052E7       jmp_406274_case_3
 0001:00005323       jmp_40631C_case_0
 0001:00005334       jmp_40631C_case_2
 0001:00005345       jmp_40631C_case_1
 0001:00005356       jmp_40631C_case_3
 0001:000054A6       jmp_406274_table
 0001:000054B6       jmp_40631C_table
 0001:000054D0       bullet15_BubblerLevel3
 0001:000055D9       jmp_4065D2_case_0
 0001:00005610       jmp_4065D2_case_2
 0001:00005644       jmp_4065D2_case_1
 0001:00005678       jmp_4065D2_case_3
 0001:00005897       jmp_4065D2_table
 0001:000058B0       bullet16_BubblerSpurs
 0001:00005937       jmp_406930_case_0
 0001:00005955       jmp_406930_case_1
 0001:00005973       jmp_406930_case_2
 0001:0000598F       jmp_406930_case_3
 0001:00005AD9       jmp_406AD2_case_0
 0001:00005B04       jmp_406AD2_case_1
 0001:00005B2F       jmp_406AD2_case_2
 0001:00005B5A       jmp_406AD2_case_3
 0001:00005B87       jmp_406930_table
 0001:00005B97       jmp_406AD2_table
 0001:00005BB0       bullet19_BladeLevel1
 0001:00005C6C       jmp_406D65_case_0
 0001:00005C78       jmp_406D65_case_1
 0001:00005C84       jmp_406D65_case_2
 0001:00005C90       jmp_406D65_case_3
 0001:00005E47       jmp_406D65_table
 0001:00005E60       bullet1A_BladeLevel2
 0001:00005F1C       jmp_406F15_case_0
 0001:00005F28       jmp_406F15_case_1
 0001:00005F34       jmp_406F15_case_2
 0001:00005F40       jmp_406F15_case_3
 0001:000060F7       jmp_406F15_table
 0001:00006110       bullet1B_BladeLevel3
 0001:0000626A       jmp_407263_case_0
 0001:00006276       jmp_407263_case_1
 0001:00006282       jmp_407263_case_2
 0001:0000628E       jmp_407263_case_3
 0001:000064E9       jmp_4074E2_case_0
 0001:00006514       jmp_4074E2_case_1
 0001:0000653F       jmp_4074E2_case_2
 0001:0000656A       jmp_4074E2_case_3
 0001:000065B8       jmp_407263_table
 0001:000065C8       jmp_4074E2_table
 0001:000065E0       bullet17_BladeSlash
 0001:000068A0       bullet18_Unused
 0001:00006910       bullet1C_1D_1E_SuperMissileLauncher
 0001:00006AE1       jmp_407ADA_case_0_2
 0001:00006B03       jmp_407ADA_case_1_3
 0001:00006B54       jmp_407B4D_case_0_2
 0001:00006B92       jmp_407B4D_case_1_3
 0001:00006C5F       jmp_407C58_case_0
 0001:00006C75       jmp_407C58_case_1
 0001:00006C8B       jmp_407C58_case_2
 0001:00006C9F       jmp_407C58_case_3
 0001:00006CDE       jmp_407CD7_case_0_2
 0001:00006D0E       jmp_407CD7_case_1_3
 0001:00006E05       jmp_407DFE_case_0
 0001:00006E27       jmp_407DFE_case_1
 0001:00006E48       jmp_407DFE_case_2
 0001:00006E69       jmp_407DFE_case_3
 0001:00007021       jmp_407ADA_table
 0001:00007031       jmp_407B4D_table
 0001:00007041       jmp_407C58_table
 0001:00007051       jmp_407CD7_table
 0001:00007061       jmp_407DFE_table
 0001:00007080       bullet1F_20_21
 0001:00007230       bullet22_23_24_2B_Nemesis
 0001:000072C3       Bullet_move_Left
 0001:000072CF       Bullet_move_up
 0001:000072DB       bullet_move_right
 0001:000072E7       bullet_move_down
 0001:0000737F       state_shoot_left
 0001:000073BD       State_shoot_up
 0001:000073F8       State_shoot_right
 0001:00007433       State_shoot_down
 0001:000075B9       Left_Bullet_Render
 0001:000075E4       Up_Bullet_Render
 0001:0000760F       Right_Bullet_Render
 0001:0000763A       Down_Bullet_Render
 0001:000076DD       jmp_4082BC_table
 0001:000076ED       jmp_408378_table
 0001:000076FD       jmp_4085B2_table
 0001:00007710       bullet25_26_27_ChargelessSpur
 0001:000077A9       jmp_4087A2_case_0
 0001:000077B5       jmp_4087A2_case_1
 0001:000077C1       jmp_4087A2_case_2
 0001:000077CD       jmp_4087A2_case_3
 0001:00007808       jmp_408801_case_0
 0001:00007814       jmp_408801_case_1
 0001:00007820       jmp_408801_case_2
 0001:0000782C       jmp_408801_case_3
 0001:00007852       jmp_40884B_case_0
 0001:0000785E       jmp_40884B_case_1
 0001:0000786A       jmp_40884B_case_2
 0001:00007876       jmp_40884B_case_3
 0001:00007AA7       jmp_4087A2_table
 0001:00007AB7       jmp_408801_table
 0001:00007AC7       jmp_40884B_table
 0001:00007AE0       bullet28_29_2A_NonMovingSpur
 0001:00007F40       bullet2C_SpurLevel2
 0001:00007F90       bullet2D_SpurLevel3
 0001:00007FC0       runBulletCode
 0001:00008047       jmp_409040_case_0
 0001:00008060       jmp_409040_case_1
 0001:0000807C       jmp_409040_case_2
 0001:00008098       jmp_409040_case_3
 0001:000080B3       jmp_409040_case_4
 0001:000080CF       jmp_409040_case_5
 0001:000080EB       jmp_409040_case_6
 0001:00008106       jmp_409040_case_7
 0001:00008122       jmp_409040_case_8
 0001:0000813E       jmp_409040_case_9
 0001:00008159       jmp_409040_case_10
 0001:00008175       jmp_409040_case_11
 0001:00008191       jmp_409040_case_12
 0001:000081AC       jmp_409040_case_13
 0001:000081C8       jmp_409040_case_14
 0001:000081E4       jmp_409040_case_15
 0001:000081FF       jmp_409040_case_16
 0001:0000821B       jmp_409040_case_17
 0001:00008237       jmp_409040_case_18
 0001:00008250       jmp_409040_case_19
 0001:0000826A       jmp_409040_case_20
 0001:00008284       jmp_409040_case_21
 0001:0000829D       jmp_409040_case_22
 0001:000082B7       jmp_409040_case_23
 0001:000082D1       jmp_409040_case_24
 0001:000082EA       jmp_409040_case_25
 0001:00008304       jmp_409040_case_26
 0001:0000831E       jmp_409040_case_27
 0001:00008339       jmp_409040_case_28
 0001:00008355       jmp_409040_case_29
 0001:00008371       jmp_409040_case_30
 0001:0000838C       jmp_409040_case_31
 0001:000083A8       jmp_409040_case_32
 0001:000083C4       jmp_409040_case_33_Call_nem_lvl_1
 0001:000083DF       jmp_409040_case_34_Call_nem_lvl_2
 0001:000083FB       jmp_409040_case_35_Call_nem_lvl_3
 0001:00008417       jmp_409040_case_36
 0001:00008432       jmp_409040_case_37
 0001:0000844E       jmp_409040_case_38
 0001:0000846A       jmp_409040_case_39
 0001:00008482       jmp_409040_case_40
 0001:0000849B       jmp_409040_case_41
 0001:000084B4       jmp_409040_case_42
 0001:000084CC       jmp_409040_case_43
 0001:000084E3       jmp_409040_case_44
 0001:00008501       jmp_409040_table
 0001:000085C0       isSomeBulletActive
 0001:00008621       jmp_40961A_case_0_to_5_10_12_to_20
 0001:00008628       jmp_40961A_default_jmp_For_Loop_Restart
 0001:00008630       jmp_40961A_table
 0001:00008638       jmp_40961A_indirect_table
 0001:00008650       initEffects
 0001:00008670       effect0_Nothing
 0001:00008680       effect1_RandomFountainPulsingDiscParticles
 0001:00008772       Initiate_Disk
 0001:00008880       effect2_RisingDiscAndExplodingDiamond
 0001:00008B80       effect3_Star
 0001:00008C70       effect4_FireballImpact
 0001:00008E00       effect5_ZzZ
 0001:00008F60       effect6_BoosterSmoke
 0001:000090AF       jmp_40A0A8_case_0
 0001:000090C3       jmp_40A0A8_case_1
 0001:000090D7       jmp_40A0A8_case_2
 0001:000090EB       jmp_40A0A8_case_3
 0001:00009101       jmp_40A0A8_table
 0001:00009120       effect7_DrownedQuote
 0001:000091B0       effect8_ExclamationMark
 0001:00009280       effect9_LevelUpOrDown
 0001:000093F0       effect10_RedDamageRings
 0001:000095A0       effect11_BigExplosion
 0001:00009650       effect12_HeadbumpSparks
 0001:000097E0       effect13_UnknownUnused
 0001:000098F0       effect14_SmallWhiteExplosionDisc
 0001:000099E0       effect15_Nothing
 0001:00009AA0       effect16_PushJumpKey
 0001:00009B50       updateEffects
 0001:00009BC0       drawEffects
 0001:00009C90       createEffect
 0001:00009D60       loadConfigData
 0001:00009E30       setDefaultConfigData
 0001:00009EC0       aboutDialog
 0001:00009FC0       muteButton
 0001:0000A1D0       debugSaveButton
 0001:0000A290       yesNoDialog
 0001:0000A320       changeScreenOffsets
 0001:0000A340       drawWindow
 0001:0000A450       initDirectDraw
 0001:0000A6C0       deleteDirectDraw
 0001:0000A7A0       destroyBitmapObjectsMaybe
 0001:0000A800       makeSurfaceFromResource
 0001:0000AAC0       makeSurfaceFromFile
 0001:0000AE10       loadBMPFromResourceOntoExistingSurface
 0001:0000AFD0       reloadBitmapFromFile
 0001:0000B1D0       makeBlankSurface
 0001:0000B320       backupSurface
 0001:0000B3C0       drawBitmapWithTransparency
 0001:0000B5B0       drawSpriteNoTransparency
 0001:0000B7A0       drawSpriteOntoSurface
 0001:0000B8B0       makeRGB
 0001:0000B9E0       drawColorFill
 0001:0000BA80       drawColorFillOntoSurface
 0001:0000BB30       return1
 0001:0000BB60       regenerateSurfaces
 0001:0000BD50       initFontObject
 0001:0000BE00       Draw_String
 0001:0000BEB0       drawStringOntoSurface
 0001:0000BF70       deleteFontObject
 0001:0000BF90       scrollCreditsText
 0001:0000C010       drawFromSlot0x25CreditsTextMaybe
 0001:0000C150       Print_Text_Maybe
 0001:0000C240       drawsSomeText
 0001:0000C2D0       slideCreditsPicture
 0001:0000C350       drawCreditsImage
 0001:0000C3A0       loadCreditsIllustration
 0001:0000C3E0       initCreditScript
 0001:0000C410       deleteCreditScript
 0001:0000C440       startCreditsScript
 0001:0000C5C0       creditsRelatedMaybe
 0001:0000C620       Credits_Related_2_Maybe
 0001:0000C684       jmp_40D67D_case_58
 0001:0000C769       jmp_40D67D_case_12
 0001:0000C7AE       jmp_40D67D_case_10
 0001:0000C7EC       jmp_40D67D_case_14
 0001:0000C7FB       jmp_40D67D_case_0
 0001:0000C840       jmp_40D67D_case_90
 0001:0000C859       jmp_40D67D_case_73
 0001:0000C943       jmp_40D67D_case_69
 0001:0000CA56       jmp_40D67D_default
 0001:0000CA76       jmp_40D67D_table
 0001:0000CA9A       jmp_40D67D_indirect_table
 0001:0000CB00       Credits_Related_3_Maybe
 0001:0000CB40       setCreditIllustration
 0001:0000CB60       cutCreditIllustration
 0001:0000CB70       sceneIslandCrash
 0001:0000CD70       callOnEscape
 0001:0000CE60       initFade
 0001:0000CE90       setFadeMask
 0001:0000CEA0       resetFadeVars
 0001:0000CEC0       startFadeOut
 0001:0000CF50       startFadeIn
 0001:0000CFE0       processFade
 0001:0000D021       jmp_40E01A_case_0
 0001:0000D07B       jmp_40E01A_case_2
 0001:0000D0D0       jmp_40E01A_case_1
 0001:0000D12A       jmp_40E01A_case_3
 0001:0000D17F       jmp_40E01A_case_4
 0001:0000D73C       jmp_40E01A_table
 0001:0000D770       drawFadeOutIn
 0001:0000D830       getFadeMode
 0001:0000D850       clearEventFlags
 0001:0000D870       initSkipFlags
 0001:0000D890       Set_NPC_Flag
 0001:0000D8E0       unsetNPCFlag
 0001:0000D930       getNPCFlag
 0001:0000D970       setSkipFlag
 0001:0000D9C0       unsetSkipFlag
 0001:0000DA10       getSkipFlag
 0001:0000DA50       initFlash
 0001:0000DA70       startFlash
 0001:0000DAC0       updateBossExplosion
 0001:0000DD20       TSC_FLA_Handler
 0001:0000DDE0       mainWhiteScreenHandler
 0001:0000DE20       drawBossExplosion
 0001:0000DE60       resetFlash
 0001:0000DE70       updateCamera
 0001:0000E020       getCameraPosition
 0001:0000E040       cameraUpdate
 0001:0000E130       setCameraQuote
 0001:0000E220       setCameraTargetQuote
 0001:0000E250       setCameraMoveTicks
 0001:0000E2D0       TSC_FOB
 0001:0000E310       setQuake
 0001:0000E320       setHardQuakeDuration
 0001:0000E330       resetQuake
 0001:0000E350       random
 0001:0000E380       drawNumbers
 0001:0000E5F0       gameModeSelector
 0001:0000E730       gameModeOpeningCutscene
 0001:0000E9B0       gameModeTitleScreen
 0001:0000F304       Call_Render_Graphics_Mychar_Top_Selection
 0001:0000F400       gameModeMainGame
 0001:0000F5F6       Do_Credits_Stuff
 0001:0000F8B0       getBuildData
 0001:0000F990       getVersionNumber
 0001:0000FAB0       openSndVol32
 0001:0000FBC0       deleteDebugTxt
 0001:0000FC10       debugPrint
 0001:0000FCA0       getDateLimit
 0001:0000FD10       doesFileExist
 0001:0000FD80       getFileSize
 0001:0000FDE0       logError
 0001:0000FE90       isShiftJIS
 0001:0000FEE0       centerWindow
 0001:0000FFE0       Load_Window_Rects
 0001:000101F0       saveWindowRectFile
 0001:000102E0       isEnableBitmap
 0001:00010390       loadInitialResources
 0001:00010E10       activateDirectInput
 0001:00010E60       releaseDirectInput
 0001:00010EB0       initDirectInput
 0001:00010EF0       directInputSomething
 0001:00010FC0       enumDevicesCallback
 0001:000110F0       getJoystickStatus
 0001:00011250       ResetJoystickStatus
 0001:000112E0       getKeys
 0001:00011320       setWindowTitle
 0001:00011370       displayFPSCounter
 0001:000113A0       countFPS
 0001:00011420       _WinMain@16
 0001:0001166A       Switch_412663_case_0
 0001:0001167C       Switch_412663_case_1
 0001:0001168D       Switch_412663_case_2
 0001:0001169F       Switch_412663_case_5
 0001:000116B1       Switch_412663_case_3
 0001:000116C2       Switch_412663_case_4
 0001:00011787       Switch_412780_case_1_2
 0001:0001191A       Switch_412780_case_0_3_4
 0001:00011B92       JumpTable_Switch_412663
 0001:00011BAA       JumpTable_Switch_412780
 0001:00011BC0       windowFocusLost
 0001:00011BF0       windowFocusGained
 0001:00011C30       loadDroppedProfile
 0001:00011CA0       windowProcedure
 0001:0001200E       jmp_Return_1_6
 0001:000121B6       jmp_Return_1_4
 0001:000122A6       jmp_Return_1_3
 0001:0001234F       Key_Input_Table
 0001:00012453       Key_Release_Table
 0001:00012570       messageQueue
 0001:000125E0       joyStickProcedure
 0001:00012750       initMapData
 0001:00012770       loadMapData
 0001:000128A0       loadAttributeData
 0001:00012930       deleteMapData
 0001:00012950       destroyBitmapObject2
 0001:00012960       getMapData
 0001:000129A0       getTileAttributes
 0001:00012A00       deleteTile
 0001:00012A20       shiftMapParts
 0001:00012A60       changeMapParts
 0001:00012AF0       drawStageBackground
 0001:00012C60       drawStageForeground
 0001:00012E40       drawMapDataVector
 0001:000130F0       readyMapName
 0001:00013250       drawMapName
 0001:000132C5       MNA_Render_Graphics_On_Title_Screen?
 0001:00013310       startMapName
 0001:00013330       redrawRoomTextToSurface
 0001:000133C0       Render_Map_System_Green_Stuff
 0001:00013640       gameLoopMap
 0001:00013B00       checkMapFlag
 0001:00013B20       clearMapFlagArray
 0001:00013B40       setMapFlag
 0001:00013B50       setQuoteinitialValues
 0001:00013BF0       doPlayerAnimation
 0001:000140FA       Play_Quote_Walk_3
 0001:0001412E       Play_Quote_Walk_4
 0001:00014220       showHidePlayer
 0001:00014229       TSC_SMC
 0001:00014250       drawQuoteAndGun
 0001:00014395       Render_Gun_Left
 0001:000146C0       playerPhysics
 0001:00014C5D       Decrease_Booster_Fuel
 0001:00015470       Quote_Movement
 0001:000158C0       Player_Related_Maybe
 0001:00015990       Quote_Air
 0001:00015AA0       getQuotePos
 0001:00015AC0       setQuotePosition
 0001:00015B30       setXAndYPos
 0001:00015B50       makeQuoteXVel0
 0001:00015B60       isInFishBattle
 0001:00015B70       setPlayerDirection
 0001:00015C40       changeUniverse
 0001:00015C50       moveQuote4000UnitsDown
 0001:00015C70       equipItem
 0001:00015C79       EQ_minus
 0001:00015CA0       andQuoteFlagsMinus2
 0001:00015CC0       setNoise
 0001:00015D40       cutNoise
 0001:00015D80       playEnvironmentalSounds
 0001:00015DF0       playStreamNoiseAndHelicopterBlades
 0001:00015E20       resetQuoteCollisionFlags
 0001:00015E30       Quote_Collision_Block
 0001:0001612C       Play_Quote_Hit_Ground
 0001:00016160       Put_Bump_Stars
 0001:000161D0       Quote_Collision_Roof_Slope_1
 0001:000162E0       Quote_Collision_Roof_Slope_2
 0001:000163F0       Quote_Collision_Roof_Slope_3
 0001:00016500       Quote_Collision_Roof_Slope_4
 0001:00016610       Quote_Collision_Floor_Slope_1
 0001:000166E8       Play_Quote_Hit_Ground_0
 0001:00016720       Quote_Collision_Floor_Slope_2
 0001:000167F8       Play_Quote_Hit_Ground_1
 0001:00016830       Quote_Collision_Floor_Slope_3
 0001:0001690A       Play_Quote_Hit_Ground_2
 0001:00016940       Quote_Collision_Floor_Slope_4
 0001:00016A1A       Play_Quote_Hit_Ground_3
 0001:00016A50       Quote_Collision_Water
 0001:00016AE0       Quote_Collision_Spike
 0001:00016B70       Quote_Collision_Spike_Water
 0001:00016C00       Quote_Collision_Wind_Left
 0001:00016C90       Quote_Collision_Wind_Up
 0001:00016D20       Quote_Collision_Wind_Right
 0001:00016DB0       Quote_Collision_Wind_Down
 0001:00016E40       doCollisionCheckPlayerMap
 0001:000170F7       No_NPC_Tile
 0001:0001769C       jmp_417EC1
 0001:000177F0       Entity_Collision_Solid
 0001:00017B10       Entity_Collision_NonSolid
 0001:00017C20       Entity_Collision_SpecialSolid
 0001:00017E2A       Play_Quote_Hit_Ground_4
 0001:00018030       doCollisionCheckPlayerNPCs
 0001:00018450       doCollisionCheckPlayerBosses
 0001:000186F0       Add_Weapon_EXP
 0001:0001882B       Play_Level_Up
 0001:00018837       Create_Level_Up_Effect
 0001:00018890       resetSelectedWeaponLevel
 0001:000188C0       Check_Weapon_MAX
 0001:00018910       damagePlayer
 0001:00018951       Add_Invincibility
 0001:00018B50       resetAllWeaponEXP
 0001:00018BA0       Add_Rocket_Ammo
 0001:00018C60       addLifePlayer
 0001:00018CB0       addMaxLifePlayer
 0001:00018D10       drawEXPBarAndMisc
 0001:000190B0       drawHUDWeaponIcons
 0001:000191D0       drawHealthBar
 0001:00019350       drawUnderwaterTimer
 0001:00019430       drawNikamaruTimer
 0001:000195D0       saveHellCounter
 0001:000197C0       getHellTime
 0001:000198F0       makeSoundObject
 0001:00019BA0       changeOrganFrequency
 0001:00019C70       changeOrganPan
 0001:00019D20       changeOrganVolume
 0001:00019DC0       playOrganyaObject
 0001:0001A2A0       releaseOrganyaObject
 0001:0001A380       initWaveData100
 0001:0001A3F0       makeOrganyaWave
 0001:0001A440       changeDrumFrequency
 0001:0001A480       changeDrumPan
 0001:0001A4D0       changeDrumVolume
 0001:0001A510       playDrumObject
 0001:0001A600       _ZN7OrgDataC2Ev
 0001:0001A650       _ZN7OrgData11InitOrgDataEv
 0001:0001A730       _ZN7OrgData12SetMusicInfoEP9MUSICINFOj
 0001:0001A890       _ZN7OrgData9NoteAllocEt
 0001:0001AA70       _ZN7OrgData11ReleaseNoteEv
 0001:0001AAD0       _ZN7OrgData11loadOrgFileEPc
 0001:0001B0B0       _ZN7OrgData12GetMusicInfoEP9MUSICINFO
 0001:0001B180       initMMTimer
 0001:0001B1E0       startTimer
 0001:0001B230       timerCallbackOrganya
 0001:0001B250       quitMMTimer
 0001:0001B2B0       _ZN7OrgData8PlayDataEv
 0001:0001B630       _ZN7OrgData14SetPlayPointerEi
 0001:0001B6C0       startOrganya
 0001:0001B6F0       loadOrganya
 0001:0001B730       setOrganyaPosition
 0001:0001B770       getOrganyaPosition
 0001:0001B790       startOrganyaPlayback
 0001:0001B7C0       changeOrganyaVolume
 0001:0001B7F0       stopOrganyaMusic
 0001:0001B880       fadeMusic
 0001:0001B890       deleteOrganya
 0001:0001B8F0       MakeWaveTables
 0001:0001BB10       MakePixelWaveData
 0001:0001BFC0       checkForProfileDat
 0001:0001C040       saveProfile
 0001:0001C260       loadProfileDat
 0001:0001C550       initialiseGame
 0001:0001C610       clearUnlockedStages
 0001:0001C630       addPermitStage
 0001:0001C6A0       Remove_Unlocked_Stage
 0001:0001C740       moveStageSelectCursor
 0001:0001C840       drawTeleporterMenu
 0001:0001CA00       gameLoopStageSelect
 0001:0001CBD0       shootSnake
 0001:0001CE60       shootPolarStar
 0001:0001D110       shootFireball
 0001:0001D3D0       shootMachineGun
 0001:0001D7B0       shootMissileLauncher
 0001:0001DFD0       shootBubblerLevel1
 0001:0001E280       shootBubblerLevel2_3
 0001:0001E580       shootBlade
 0001:0001E710       shootNemesis
 0001:0001E9E0       resetSpurCharge
 0001:0001EA10       shootSpur
 0001:0001EE70       shootBullet
 0001:0001F0C0       initDirectSound
 0001:0001F1A0       deleteDirectSound
 0001:0001F240       loadWAVFile
 0001:0001F390       loadSoundObject
 0001:0001F640       playSoundEffect
 0001:0001F720       changeSoundFrequency
 0001:0001F760       changeSoundVolume
 0001:0001F7A0       changeSoundPan
 0001:0001F7E0       makePixtoneObject
 0001:0001FBE0       changeStage
 0001:0001FEE0       changeMusic
 0001:0001FF50       recallMusic
 0001:0001FFA0       initWhimsicalStar
 0001:00020040       doWhimsicalStar
 0001:000203B0       drawWhimsicalStar
 0001:000204E0       initTSC
 0001:00020570       deleteTSC
 0001:000205C0       decryptTSCScript
 0001:00020660       loadSpecialTSC
 0001:00020750       loadTSCScript
 0001:000208E0       getTextScriptPath
 0001:00020900       getTSCNumber
 0001:00020990       startTSCEvent
 0001:00020AF0       changeEvent
 0001:00020C50       stopTSC
 0001:00020C80       checkNewLine
 0001:00020D10       printNumber
 0001:00020E90       clearTextLine
 0001:00020F10       drawTextBox
 0001:00021510       TSCParser
 0001:00021573       jmp_42256C_case_0
 0001:000215ED       Tst_END
 0001:00024576       jmp_42256C_case_1
 0001:00024596       jmp_42256C_case_2
 0001:000245FB       jmp_42256C_case_3
 0001:0002464D       jmp_42256C_case_4
 0001:0002466E       jmp_42256C_case_6
 0001:00024690       jmp_42256C_case_5
 0001:00024790       drawTextToTextBoxSurfaces
 0001:000247F0       initTriangleTable
 0001:000248B0       getSin
 0001:000248C0       getCos
 0001:000248E0       getArcTan
 0001:00024B40       callCallCos
 0001:00024B60       callCos
 0001:00024B80       callCallSin
 0001:00024BA0       callSin
 0001:00024BC0       clearValueView
 0001:00024BF0       setValueView
 0001:00025360       actValueView
 0001:00025430       putValueView
 0001:00025530       NPC0_Nothing
 0001:000255B0       NPC1_WeaponEnergy
 0001:00025AF0       NPC2_EnemyBehemoth
 0001:00025FD0       NPC3_DeletesItself
 0001:00026040       NPC4_Smoke
 0001:00026480       NPC5_EnemyCritterHoppingGreen
 0001:00026820       NPC6_EnemyBeetleHorizontalGreen
 0001:00026C60       NPC7_EnemyBasil
 0001:00026F00       NPC8_EnemyBeetleFollow1
 0001:00027260       NPC9_BalrogDropIn
 0001:00027540       NPC10_BossBalrogShooting
 0001:000279B0       NPC11_ProjectileBalrogEnergyBounce
 0001:00027B10       NPC12_BalrogCutscene
 0001:00028940       NPC13_Forcefield
 0001:00028A30       NPC14_SantasKey
 0001:00028BF0       NPC15_TreasureChestClosed
 0001:00028E00       NPC16_SavePoint
 0001:000290B0       NPC17_HealthAmmoRefill
 0001:00029360       NPC18_Door
 0001:00029490       NPC19_BalrogBustsIn
 0001:00029830       NPC20_Computer
 0001:00029940       NPC21_TreasureChestOpen
 0001:000299C0       NPC22_Teleporter
 0001:00029A70       NPC23_TeleporterLights
 0001:00029BD0       NPC24_PowerCritter
 0001:0002A280       NPC25_LiftPlatform
 0001:0002A5E0       NPC26_EnemyBatBlackCircling
 0001:0002AA90       NPC27_Deathtrap
 0001:0002AAE0       NPC28_EnemyCritterFlying
 0001:0002B1A0       NPC29_Cthulhu
 0001:0002B320       NPC30_HermitGunsmith
 0001:0002B4C0       NPC31_EnemyBatBlackHanging
 0001:0002BA10       NPC32_LifeCapsule
 0001:0002BAC0       NPC33_ProjectileBalrogEnergyBounce
 0001:0002BC20       NPC34_Bed
 0001:0002BCB0       NPC35_EnemyMannan
 0001:0002C010       NPC36_BossBalrogHovering
 0001:0002C760       NPC37_Signpost
 0001:0002C810       NPC38_FireplaceFire
 0001:0002C960       NPC39
 0001:0002C9F0       NPC40
 0001:0002CE00       NPC41
 0001:0002CE70       NPC42
 0001:0002D9F0       NPC43
 0001:0002DAB0       NPC44
 0001:0002E060       NPC45
 0001:0002E320       NPC46
 0001:0002E3F0       NPC47
 0001:0002E780       NPC48
 0001:0002E9E0       NPC49
 0001:0002EEC0       NPC50
 0001:0002F1B0       NPC51
 0001:0002F780       NPC52_Sitting_Blue_Bot
 0001:0002F7D0       NPC53
 0001:0002FB00       NPC54
 0001:0002FEB0       NPC55
 0001:000301D0       NPC56
 0001:000305E0       NPC57
 0001:00030C20       NPC58
 0001:000311F0       NPC59
 0001:00031460       NPC60
 0001:00031B50       NPC61
 0001:000324C0       NPC62
 0001:000326C0       NPC63
 0001:00032C00       NPC64
 0001:00032FC0       NPC65
 0001:000332B0       NPC66
 0001:000335E0       NPC67
 0001:00033D10       NPC68
 0001:000345F0       NPC69
 0001:00034AB0       NPC70
 0001:00034BA0       NPC71
 0001:00034DE0       NPC72
 0001:00034FC0       NPC73
 0001:00035180       NPC74
 0001:00035540       NPC75
 0001:00035650       NPC76
 0001:00035690       NPC77_Sandaim_the_Farmer
 0001:000357E0       NPC78_Pot
 0001:00035870       NPC79
 0001:00035AE0       NPC80
 0001:000360F0       NPC81
 0001:000365E0       NPC82
 0001:00036D90       NPC83
 0001:00037250       NPC84
 0001:000373D0       NPC85
 0001:00037590       NPC86
 0001:00037850       NPC87
 0001:00037B10       NPC88
 0001:00038580       NPC89
 0001:00038B00       NPC90
 0001:00038B50       NPC91
 0001:00038BC0       NPC92
 0001:00038DC0       NPC93
 0001:00039220       NPC94_Giant_Jelly
 0001:00039680       NPC95
 0001:00039AF0       NPC96
 0001:00039D10       NPC97
 0001:00039F20       NPC98
 0001:0003A140       NPC99
 0001:0003A350       NPC100
 0001:0003A410       NPC101
 0001:0003A4E0       NPC102
 0001:0003A5F0       NPC103
 0001:0003A7F0       NPC104
 0001:0003AD00       NPC105
 0001:0003ADB0       NPC106
 0001:0003AE00       NPC107
 0001:0003B4B0       NPC108
 0001:0003B610       NPC109
 0001:0003B8E0       NPC110
 0001:0003BDE0       NPC111
 0001:0003C0A0       NPC112
 0001:0003C320       NPC113
 0001:0003C860       NPC114
 0001:0003CAE0       NPC115
 0001:0003D190       NPC116
 0001:0003D1E0       NPC117
 0001:0003D9B0       NPC118
 0001:0003E230       NPC119
 0001:0003E280       NPC120
 0001:0003E310       NPC121
 0001:0003E4A0       NPC122
 0001:0003EC70       NPC123
 0001:0003EEF0       NPC124
 0001:0003F0D0       NPC125
 0001:0003F1F0       NPC126
 0001:0003F760       NPC127
 0001:0003F8B0       NPC128
 0001:0003FCF0       NPC129
 0001:00040000       NPC130
 0001:00040360       NPC131
 0001:00040440       NPC132
 0001:000409B0       NPC133
 0001:00040B20       NPC134
 0001:00040EC0       NPC135
 0001:00041340       NPC136
 0001:00041540       NPC137
 0001:00041590       NPC138
 0001:00041790       NPC139
 0001:00041BF0       NPC140
 0001:00042AC0       NPC141
 0001:00042EC0       NPC142
 0001:00043190       NPC143
 0001:00043230       NPC144
 0001:00043620       NPC145
 0001:00043780       NPC146
 0001:00043930       NPC147
 0001:00044050       NPC148
 0001:00044170       NPC149
 0001:00044660       NPC150
 0001:00044E30       NPC151
 0001:00044FA0       NPC152
 0001:00045020       NPC153
 0001:00045500       NPC154
 0001:00045710       NPC155
 0001:00045B60       NPC156
 0001:00045CA0       NPC157
 0001:00046180       NPC158
 0001:000464C0       NPC159
 0001:00046700       NPC160
 0001:00046CB0       NPC161
 0001:00046E90       NPC162
 0001:000472A0       NPC163
 0001:00047410       NPC164
 0001:00047580       NPC165
 0001:000476E0       NPC166
 0001:000477F0       NPC167
 0001:00047A10       NPC168
 0001:00047BE0       NPC169
 0001:000485A0       NPC170
 0001:000488C0       NPC171
 0001:00048C10       NPC172
 0001:00048D70       NPC173
 0001:000493C0       NPC174
 0001:00049610       NPC175
 0001:000497D0       NPC176
 0001:00049BB0       NPC177
 0001:00049EE0       NPC178
 0001:0004A080       NPC179
 0001:0004A210       NPC180
 0001:0004AE10       NPC181
 0001:0004B220       NPC182
 0001:0004B630       NPC183
 0001:0004B7A0       NPC184
 0001:0004BA60       NPC185
 0001:0004BBE0       NPC186
 0001:0004BDB0       NPC187
 0001:0004C070       NPC188
 0001:0004C3A0       NPC189
 0001:0004C5E0       NPC190
 0001:0004C740       NPC191
 0001:0004CA00       NPC192
 0001:0004CE20       NPC193
 0001:0004CEA0       NPC194
 0001:0004CF10       NPC195
 0001:0004CF60       NPC196
 0001:0004D020       NPC197
 0001:0004D260       NPC198
 0001:0004D400       NPC199
 0001:0004D5F0       NPC200
 0001:0004DC40       NPC201
 0001:0004DCE0       NPC202
 0001:0004DE40       NPC203
 0001:0004E1F0       NPC204
 0001:0004E3E0       NPC205
 0001:0004E6D0       NPC206
 0001:0004EB40       NPC207
 0001:0004ECB0       NPC208
 0001:0004F280       NPC209
 0001:0004F400       NPC210
 0001:0004F760       NPC211
 0001:0004F810       NPC212
 0001:0004FBF0       NPC213
 0001:000502A0       NPC214
 0001:00050430       NPC215
 0001:000507F0       NPC216_Debug_Cat
 0001:00050812       Render
 0001:00050840       NPC217
 0001:00050CA0       NPC218
 0001:00050DA0       NPC219
 0001:00050E90       NPC220
 0001:00051000       NPC221
 0001:00051470       NPC222
 0001:000514E0       NPC223
 0001:00051700       NPC224
 0001:000518D0       NPC225
 0001:00051A50       NPC226
 0001:00051D10       NPC227_Bucket
 0001:00051D60       NPC228
 0001:000520D0       NPC229
 0001:00052190       NPC230
 0001:00052260       NPC231
 0001:000526F0       NPC232
 0001:000529B0       NPC233
 0001:00052E60       NPC234
 0001:00052F20       NPC235
 0001:00053310       NPC236
 0001:000538B0       NPC237
 0001:00053A00       NPC238
 0001:00053DF0       NPC239
 0001:00053F00       NPC240
 0001:00054370       NPC241
 0001:00054710       NPC242
 0001:00054A10       NPC243
 0001:00054AB0       NPC244
 0001:00054C10       NPC245
 0001:00054E00       NPC246
 0001:00055110       NPC247
 0001:00055F50       NPC248
 0001:000560B0       NPC249
 0001:00056180       NPC250
 0001:00056470       NPC251
 0001:00056570       NPC252
 0001:000569D0       NPC253
 0001:00056B00       NPC254
 0001:00056D70       NPC255
 0001:00057010       NPC256
 0001:00057360       NPC257
 0001:000575A0       NPC258
 0001:000575F0       NPC259
 0001:000577D5       Return
 0001:00057810       NPC260
 0001:00057A70       NPC261
 0001:00057C30       NPC262
 0001:00057DF0       NPC263
 0001:00058950       NPC264
 0001:00058B30       NPC265
 0001:00058C00       NPC266
 0001:00058D80       NPC267
 0001:0005A3D0       NPC268
 0001:0005ACB0       NPC269
 0001:0005AF10       NPC270
 0001:0005B230       NPC271
 0001:0005B500       NPC272
 0001:0005B5A0       NPC273
 0001:0005B750       NPC274
 0001:0005BC80       NPC275
 0001:0005BEA0       NPC276
 0001:0005C780       NPC277
 0001:0005C930       NPC278
 0001:0005CCF0       NPC279
 0001:0005D110       NPC280
 0001:0005D360       NPC281
 0001:0005D4C0       NPC282
 0001:0005D950       NPC283
 0001:0005E910       NPC284
 0001:0005F910       NPC285
 0001:0005FAE0       NPC286
 0001:0005FBB0       NPC287
 0001:0005FD70       NPC288
 0001:000600D0       NPC289
 0001:000604A0       NPC290
 0001:00060800       NPC291
 0001:000608B0       NPC292
 0001:000608C0       NPC293
 0001:000609E0       NPC294
 0001:00060B90       NPC295
 0001:00060E40       NPC296
 0001:00060FD0       NPC297
 0001:00061050       NPC298
 0001:000613D0       NPC299
 0001:000614E0       NPC300
 0001:000615A0       NPC301
 0001:00061890       NPC302
 0001:00061AF0       NPC303
 0001:00061C80       NPC304
 0001:00061E00       NPC305
 0001:00061F60       NPC306
 0001:000620F0       NPC307
 0001:000622B0       NPC308
 0001:00062710       NPC309
 0001:00062AC0       NPC310
 0001:00063090       NPC311
 0001:00063740       NPC312
 0001:00063BB0       NPC313
 0001:00064CC0       NPC314
 0001:00064F60       NPC315
 0001:000654B0       NPC316
 0001:00065790       NPC317
 0001:00065B80       NPC318
 0001:00065E50       NPC319
 0001:000660C0       NPC320
 0001:000663F0       NPC321
 0001:000666D0       NPC322
 0001:00066C60       NPC323
 0001:00066F40       NPC324
 0001:00066FE0       NPC325
 0001:00067230       NPC326
 0001:00067830       NPC327
 0001:00067990       NPC328
 0001:000679E0       NPC329
 0001:00067A90       NPC330
 0001:00067D70       NPC331
 0001:00067F50       NPC332
 0001:00068140       NPC333
 0001:00068290       NPC334
 0001:00068430       NPC335
 0001:00068610       NPC336
 0001:000686B0       NPC337
 0001:00068800       NPC338
 0001:00068AA0       NPC339
 0001:00068B40       NPC340
 0001:0006A240       NPC341
 0001:0006A340       NPC342
 0001:0006AD80       NPC343
 0001:0006AE10       NPC344
 0001:0006AF00       NPC345
 0001:0006B1D0       NPC346
 0001:0006B710       NPC347
 0001:0006B9B0       NPC348
 0001:0006BAC0       NPC349
 0001:0006BB50       NPC350
 0001:0006C340       NPC351
 0001:0006C5D0       NPC352
 0001:0006CBE0       NPC353
 0001:0006D110       NPC354
 0001:0006D280       NPC355
 0001:0006D480       NPC356
 0001:0006D730       NPC357
 0001:0006D870       NPC358
 0001:0006D9E0       NPC359
 0001:0006DA90       NPC360_Thank_You
 0001:0006DB30       initNPCs
 0001:0006DB50       Load_Event
 0001:0006DE50       Set_Unique_Parameter
 0001:0006DFD0       createNPC
 0001:0006E150       createDustClouds
 0001:0006E200       createDustCloudsUp
 0001:0006E2B0       Spawn_Exp
 0001:0006E430       Spawn_Missiles
 0001:0006E630       Spawn_HP
 0001:0006E760       Vanish_NPC
 0001:0006E810       drawNPCs
 0001:0006EA00       updateNPCs
 0001:0006EAB0       spawnNPC
 0001:0006ED10       changeCheckableNPCByEvent
 0001:0006EF90       setNPCState
 0001:0006F060       moveNPC
 0001:0006F150       backStepPlayer
 0001:0006F250       deleteNPCEvent
 0001:0006F2D0       killNPC
 0001:0006F460       getNPCPosition
 0001:0006F490       isNPCType
 0001:0006F4F0       checkNPCAlive
 0001:0006F560       Count_Live_NPCs
 0001:0006F5C0       NPC_Collision_Block
 0001:0006F870       NPC_Collision_Triangle_A
 0001:0006F970       NPC_Collision_Triangle_B
 0001:0006FA70       NPC_Collision_Triangle_C
 0001:0006FB70       NPC_Collision_Triangle_D
 0001:0006FC70       NPC_Collision_Triangle_E
 0001:0006FD80       NPC_Collision_Triangle_F
 0001:0006FE90       NPC_Collision_Triangle_G
 0001:0006FFA0       NPC_Collision_Triangle_H
 0001:000700B0       NPC_Collision_Water
 0001:00070160       doCollisionCheckNPCsMap
 0001:00070B80       NPC_Death_Maybe
 0001:00070D50       entityBulletCollision
 0001:00071400       loadNPCTable
 0001:00071710       deleteNPCTable
 0001:00071740       initRoomBoss
 0001:00071770       drawBoss
 0001:00071940       setBossScriptState
 0001:00071950       doCollisionCheckBossesBullets
 0001:00071FF0       boss0_NoSpecialBoss
 0001:00072000       updateBoss
 0001:00072080       doCollisionCheckBossesMap
 0001:000729B0       coreSubNPCFace
 0001:00072BD0       coreSubNPCTail
 0001:00072DE0       coreSubNPCMini
 0001:00073340       coreSubNPCHit
 0001:00073400       boss4_Core
 0001:000743D0       boss7_UndeadCore
 0001:00075790       undeadSubNPCHead
 0001:000759A0       undeadSubNPCTail
 0001:00075B90       undeadSubNPCFace
 0001:00075E50       undeadSubNPCMini
 0001:00076230       undeadSubNPCHit
 0001:000762F0       boss9_BallosBall
 0001:00077AA0       ballosSubNPCEye
 0001:00077F20       ballosSubNPCBody
 0001:00077FE0       ballosSubNPCHITAI
 0001:00078010       ballosSubNPCHARA
 0001:00078030       boss2_Balfrog
 0001:000796A0       balfrogSubNPC1
 0001:00079800       balfrogSubNPC2
 0001:000798A0       Boss_5_Ironhead
 0001:0007A450       initBossLife
 0001:0007A460       startBossLife
 0001:0007A500       startBossLife2
 0001:0007A540       drawBossHealth
 0001:0007A6F0       Boss_1_Omega
 0001:0007B380       Omega_Sub_NPC_2
 0001:0007B4E0       Omega_Sub_NPC_1
 0001:0007B7A0       Omega_Sub_NPC_3
 0001:0007B820       Boss_8_Heavy_Press
 0001:0007C170       Boss_6_Dragon_Sisters
 0001:0007C1BE       jmp_Return6
 0001:0007C9FA       glb_47D9FA
 0001:0007CAA0       Sisters_Sub_NPC_Dragon_Body
 0001:0007CF10       Sisters_Sub_NPC_Dragon_Head
 0001:0007D6F0       boss3_MonsterX
 0001:0007E710       monsterXSubNPC1
 0001:0007F090       monsterXSubNPCFishMissiles
 0001:0007F2A0       monsterXSubNPC3
 0001:0007F550       monsterXSubNPC4
 0001:0007F8C0       monsterXSubNPCHead
 0001:0007FA36       DirectDrawCreate
 0001:0007FA3C       DirectInputCreateA
 0001:0007FA58       aAHAHAAHARHAAHAPHAPH
 0001:0007FAE4       aA
 0001:0007FAF4       aA_0
 0001:0007FD28       DirectSoundCreate
 0001:0007FD30       _memset
 0001:0007FD53       adjust_loop
 0001:0007FD5D       dwords
 0001:0007FD77       main_loop_tail
 0001:0007FD7B       tail
 0001:0007FD85       finish
 0001:0007FD8B       toend
 0001:0007FDAD       _report_failure_Return_1
 0001:0007FDB1       _report_failure_sub_480DB1
 0001:0007FDC1       _report_failure
 0001:0007FDCF       _fclose_nolock
 0001:0007FE1B       _fclose
 0001:0007FE6C       fread_nolock
 0001:0007FF55       fread
 0001:0007FFA1       __fsopen
 0001:0007FFF3       _fsopen_sub_480FF3
 0001:0007FFFD       _fopen
 0001:00080010       _sprintf
 0001:00080070       _strcmp
 0001:00080080       dodwords
 0001:000800B0       doneeq
 0001:000800B4       donene
 0001:000800BC       dopartial
 0001:000800DC       doword
 0001:00080100       _strcpy
 0001:00080110       _strcat
 0001:0008011D       dest_misaligned
 0001:00080130       find_end_of_dest_string_loop
 0001:00080163       start_byte_3
 0001:00080168       start_byte_2
 0001:0008016D       start_byte_1
 0001:00080172       start_byte_0
 0001:00080175       copy_start
 0001:00080181       src_misaligned
 0001:00080199       main_loop
 0001:0008019E       main_loop_entrance
 0001:000801B8       main_loop_end
 0001:00080200       _strlen
 0001:0008020C       str_misaligned
 0001:0008028B       free
 0001:000802DE       unlock_4
 0001:000802FC       _heap_alloc
 0001:0008036B       __heap_alloc_sub_48136B
 0001:0008036E       __heap_alloc_call__unlock
 0001:00080377       _malloc_base
 0001:000803A3       _malloc
 0001:000803C0       _memcpy
 0001:000803E0       CopyUp
 0001:000803FC       CopyLeadUp
 0001:00080414       ByteCopyUp
 0001:0008041C       CopyUnwindUp
 0001:00080424       LeadUpVec
 0001:00080430       LeadUp1
 0001:0008045C       LeadUp2
 0001:00080480       LeadUp3
 0001:000804C0       UnwindUp7
 0001:000804C8       UnwindUp6
 0001:000804D0       UnwindUp5
 0001:000804D8       UnwindUp4
 0001:000804E0       UnwindUp3
 0001:000804E8       UnwindUp2
 0001:000804F0       UnwindUp1
 0001:00080503       UnwindUp0
 0001:0008051C       TrailUp0
 0001:00080524       TrailUp1
 0001:00080530       TrailUp2
 0001:00080544       TrailUp3
 0001:0008055C       CopyDown
 0001:00080584       CopyUnwindDown
 0001:00080590       CopyLeadDown
 0001:000805A8       ByteCopyDown
 0001:000805B0       LeadDownVec
 0001:000805BC       LeadDown1
 0001:000805E0       LeadDown2
 0001:00080608       LeadDown3
 0001:0008065C       UnwindDown7
 0001:00080664       UnwindDown6
 0001:0008066C       UnwindDown5
 0001:00080674       UnwindDown4
 0001:0008067C       UnwindDown3
 0001:00080684       UnwindDown2
 0001:0008068C       UnwindDown1
 0001:0008069F       UnwindDown0
 0001:000806B8       TrailDown0
 0001:000806C0       TrailDown1
 0001:000806D0       TrailDown2
 0001:000806E4       TrailDown3
 0001:000806FD       _srand
 0001:0008070A       _rand
 0001:00080730       _memcmp
 0001:00080763       main_loop_1
 0001:00080780       done
 0001:00080782       retnull
 0001:00080783       dwords_0
 0001:000807AB       difference_in_tail
 0001:000807B0       not_equal
 0001:000807B8       tail_loop_start
 0001:000807E5       tail_done
 0001:000807E8       _sscanf
 0001:0008081C       _fprintf
 0001:00080870       _fprintf_unlock_str
 0001:0008087A       _fwrite_nolock
 0001:00080981       fwrite
 0001:000809CD       _fseek_nolock
 0001:00080A5C       _fseek
 0001:00080A9B       _fseek_unlock_str
 0001:00080AA5       Just_Return
 0001:00080AA6       __cfltcvt_init
 0001:00080ADE       __fpmath
 0001:00080B00       __CIsin
 0001:00080B14       _sin
 0001:00080B1D       start_0
 0001:00080B32       CW_is_set_to_default
 0001:00080B3A       exit
 0001:00080B57       reduce_arg
 0001:00080B5F       redux_loop
 0001:00080B6D       not_infinity
 0001:00080B74       inf_or_nan
 0001:00080B8F       _Error_handling
 0001:00080BB0       __ftol2
 0001:00080BD3       arg_is_not_integer_QnaN
 0001:00080BF7       positive
 0001:00080C0F       integer_QnaN_or_zero
 0001:00080C23       localexit
 0001:00080C30       __CIcos
 0001:00080C44       _cos
 0001:00080C4D       start_1
 0001:00080C62       CW_is_set_to_default_0
 0001:00080C6A       exit_0
 0001:00080C87       reduce_arg_0
 0001:00080C8F       redux_loop_0
 0001:00080C9D       not_infinity_0
 0001:00080CA4       inf_or_nan_0
 0001:00080CBF       _Error_handling_0
 0001:00080CDE       __amsg_exit
 0001:00080D03       _fast_error_exit
 0001:00080D27       WinMainCRTStartup
 0001:00080EFC       ___security_init_cookie
 0001:00080F62       __security_error_handler
 0001:00080F9A       ___security_error_handler_return_1
 0001:00080F9E       ___security_error_handler
 0001:000810AC       _VALIDATE_RETURN
 0001:000810E7       __SEH_epilog
 0001:00081100       __except_handler3
 0001:00081140       _lh_top
 0001:000811A9       _lh_continue
 0001:000811B4       _lh_dismiss
 0001:000811BB       _lh_abort
 0001:000811C2       _lh_bagit
 0001:000811C9       _lh_unwinding
 0001:000811DE       _lh_return
 0001:000811E6       __seh_longjmp_unwind@4
 0001:00081201       _close_nolock
 0001:00081284       __close
 0001:000812F8       _close_sub_4822F8
 0001:000812FB       _close_call___unlock_fhandle
 0001:0008131F       __freebuf
 0001:0008134A       __flush
 0001:000813A7       _fflush_nolock
 0001:000813D5       _flsall
 0001:00081475       _flsall_sub_482475
 0001:000814A1       _flsall_sub_4824A1
 0001:000814AA       _flushall
 0001:000814B3       ___initstdio
 0001:0008155C       ___endstdio
 0001:00081570       _lock_str
 0001:0008159F       __lock_file2
 0001:000815C2       __unlock_file
 0001:000815F1       __unlock_file2
 0001:00081614       __filbuf
 0001:000816F5       _read_nolock
 0001:000818D0       __read
 0001:00081954       _read_sub_482954
 0001:00081957       call_unlock_fh
 0001:0008197B       __openfile
 0001:00081AE3       __errno
 0001:00081AEC       ___doserrno
 0001:00081AF5       __dosmaperr
 0001:00081B68       __getstream
 0001:00081C7E       _getstream_sub_482C7E
 0001:00081C81       _getstream_sub_482C81
 0001:00081C8A       __flsbuf
 0001:00081DA3       _write_char
 0001:00081DD6       _write_multi_char
 0001:00081DFA       _write_string
 0001:00081E31       _output_l
 0001:00081EBD       jmp_482EB6_case_1
 0001:00081EDA       jmp_482EB6_case_2
 0001:00081F26       jmp_482EB6_case_3
 0001:00081F67       jmp_482EB6_case_4
 0001:00081F70       jmp_482EB6_case_5
 0001:00081FAE       jmp_482EB6_case_6
 0001:0008204D       jmp_482EB6_case_0
 0001:0008208F       jmp_482EB6_case_7
 0001:0008262B       ___heap_select
 0001:00082645       __heap_init
 0001:00082696       __mtinitlocks
 0001:000826DF       __mtdeletelocks
 0001:00082734       __unlock
 0001:00082749       __mtinitlocknum
 0001:000827E0       _mtinitlocknum_sub_4837E0
 0001:000827E9       _mlock
 0001:0008281A       ___sbh_heap_init
 0001:00082862       ___sbh_find_block
 0001:0008288D       ___sbh_free_block
 0001:00082BA5       ___sbh_alloc_new_region
 0001:00082C5C       ___sbh_alloc_new_group
 0001:00082D62       ___sbh_resize_block
 0001:00083041       ___sbh_alloc_block
 0001:0008333D       __callnewh
 0001:00083358       ___crtTlsAlloc@4
 0001:00083361       __mtterm
 0001:0008337E       __getptd
 0001:000833EF       __freefls@4
 0001:0008351C       _freefls@4_sub_48451C
 0001:00083521       _freefls@4_sub_484521
 0001:0008352D       _freefls@4_sub_48452D
 0001:00083536       __mtinit
 0001:00083625       __inc
 0001:0008363B       __input
 0001:000843B7       __stbuf
 0001:0008443F       __ftbuf
 0001:00084469       __write_lk
 0001:00084637       __write
 0001:000846BB       _write_sub_4856BB
 0001:000846BE       _write_call___unlock_fhandle
 0001:000846E2       __lseek_lk
 0001:00084756       __lseek
 0001:000847DA       _lseek_sub_4857DA
 0001:000847DD       _lseek_call___unlock_fhandle
 0001:00084801       __ftell_lk
 0001:00084963       __forcdecpt
 0001:0008499F       __cropzeros
 0001:000849EA       __positive
 0001:00084A04       __fassign
 0001:00084A42       __shift
 0001:00084A5F       __cftoe2
 0001:00084B0D       __cftoe
 0001:00084B79       __cftof2
 0001:00084C15       __cftof
 0001:00084C77       __cftog
 0001:00084D11       __cfltcvt
 0001:00084D62       __setdefaultprecision
 0001:00084D74       __ms_p5_test_fdiv
 0001:00084DB4       __ms_p5_mp_test_fdiv
 0001:00084DE0       __trandisp1
 0001:00084E47       __trandisp2
 0001:00084E5E       cwdefault
 0001:00084E62       setcw
 0001:00084ED3       __rttospopde
 0001:00084ED8       __rttospop
 0001:00084EDA       __rtnospop
 0001:00084EDC       __rttosnpop
 0001:00084EDD       __rtnospopde
 0001:00084EE4       __rtzeropop
 0001:00084EE6       __rtzeronpop
 0001:00084EEB       __rtonepop
 0001:00084EED       __rtonenpop
 0001:00084EF2       __tosnan1
 0001:00084F0F       _tossnan1
 0001:00084F1D       __nosnan2
 0001:00084F1F       __tosnan2
 0001:00084F3D       _tossnan2
 0001:00084F44       _tosnan2ret
 0001:00084F47       __nan2
 0001:00084F7C       _snan2
 0001:00084F83       _nan2ret
 0001:00084F86       __rtindfpop
 0001:00084F88       __rtindfnpop
 0001:00084F99       __rttosnpopde
 0001:00084FA0       retj
 0001:00084FA3       __rtchsifneg
 0001:00084FA9       chsifnegret
 0001:00084FB0       __twoToTOS
 0001:00084FC5       __load_CW
 0001:00084FDC       __convertTOStoQNaN
 0001:00084FF5       __fload_withFB
 0001:00085038       __checkTOS_withFB
 0001:0008504E       __fast_exit
 0001:0008505B       __math_exit
 0001:00085085       __check_overflow_exit
 0001:00085099       __check_range_exit
 0001:000850AD       _check_overflow_start
 0001:000850D2       have_error
 0001:000850DE       have_error_in_pow
 0001:000850EA       haveunderflow
 0001:00085113       haveoverflow
 0001:00085140       __startTwoArgErrorHandling
 0001:00085157       __startOneArgErrorHandling
 0001:00085160       _ContinueErrorHandling
 0001:00085193       ___crtExitProcess
 0001:000851C3       __lockexit
 0001:000851CC       __unlockexit
 0001:000851D5       __initterm
 0001:000851ED       __cinit
 0001:00085257       _doexit
 0001:00085301       mov_edi_0_esi_1
 0001:00085306       _doexit_sub_486306
 0001:0008531A       _exit
 0001:0008532B       __exit
 0001:0008533C       __cexit
 0001:0008534B       __c_exit
 0001:0008535A       __NMSG_WRITE
 0001:000854D1       __FF_MSGBANNER
 0001:0008550A       __XcptFilter
 0001:0008566E       _twincmdln
 0001:000856CB       __setenvp
 0001:00085792       _parse_cmdline
 0001:000858FE       __setargv
 0001:000859A0       GetEnvironmentStringsT
 0001:00085AC2       __ioinit
 0001:00085CC0       _CrtSetCheckCount
 0001:00085CED       Random_Return_1_In_The_Middle_Of_A_Function
 0001:00085D04       On_Exit_Function
 0001:00085D50       __alloca_probe
 0001:00085D65       probesetup
 0001:00085D6A       probepages
 0001:00085D7E       lastpage
 0001:00085D8D       ___crtMessageBoxA
 0001:00085E90       _strncpy
 0001:00085EE3       copy_tail_loop
 0001:00085EF6       fill_tail_end1
 0001:00085EFE       align_dest
 0001:00085F06       dest_align_loop
 0001:00085F1C       dest_align_loop_end
 0001:00085F23       finish_loop
 0001:00085F28       fill_tail_zero_bytes
 0001:00085F35       main_loop_2
 0001:00085F8D       fill_with_EOS_dwords
 0001:00085F97       fill_dwords_with_EOS
 0001:00085F99       fill_with_EOS_loop
 0001:00085FA3       fill_tail
 0001:00085FAC       fill_tail_end
 0001:00085FB4       __global_unwind2
 0001:00085FD4       __unwind_handler
 0001:00085FF6       __local_unwind2
 0001:0008604E       __NLG_Return2
 0001:0008605E       __abnormal_termination
 0001:00086081       __NLG_Notify1
 0001:0008608A       __NLG_Notify
 0001:00086094       __NLG_Go
 0001:0008609D       __NLG_Dispatch
 0001:000860A2       __ValidateEH3RN
 0001:000862CB       __set_osfhnd
 0001:00086347       __free_osfhnd
 0001:000863C6       __get_osfhandle
 0001:00086407       _lock_fh
 0001:0008649B       __lock_fhandle_sub_48749B
 0001:0008649E       __lock_fhandle_sub_48749E
 0001:000864A7       _unlock_fh
 0001:000864C9       __alloc_osfhnd
 0001:0008659C       Very_Strange_Shit
 0001:000865A2       __alloc_osfhnd_sub_4875A2
 0001:0008663C       __alloc_osfhnd_sub_48763C
 0001:00086645       __commit
 0001:000866E2       _commit_sub_4876E2
 0001:000866E5       _commit_call___unlock_fhandle
 0001:00086701       _calloc
 0001:000867A8       _calloc_sub_4877A8
 0001:000867AB       _calloc_sub_4877AB
 0001:000867BC       __fcloseall
 0001:0008684E       __fcloseall_sub_48784E
 0001:00086857       __getbuf
 0001:0008689B       __tsopen_lk
 0001:00086B82       __sopen
 0001:00086BC7       __sopen_sub_487BC7
 0001:00086BD7       ___crtInitCritSecNoSpinCount@8
 0001:00086BE7       ___crtInitCritSecAndSpinCount
 0001:00086C72       __isatty
 0001:00086C9C       ___wctomb_mt
 0001:00086CFC       _wctomb
 0001:00086D30       __aulldvrm
 0001:00086DD0       _memcpy_0
 0001:00086DF0       CopyUp_0
 0001:00086E0C       CopyLeadUp_0
 0001:00086E24       ByteCopyUp_0
 0001:00086E2C       CopyUnwindUp_0
 0001:00086E40       LeadUp1_0
 0001:00086E6C       LeadUp2_0
 0001:00086E90       LeadUp3_0
 0001:00086ED0       UnwindUp7_0
 0001:00086ED8       UnwindUp6_0
 0001:00086EE0       UnwindUp5_0
 0001:00086EE8       UnwindUp4_0
 0001:00086EF0       UnwindUp3_0
 0001:00086EF8       UnwindUp2_0
 0001:00086F00       UnwindUp1_0
 0001:00086F13       UnwindUp0_0
 0001:00086F2C       TrailUp0_0
 0001:00086F34       TrailUp1_0
 0001:00086F40       TrailUp2_0
 0001:00086F54       TrailUp3_0
 0001:00086F6C       CopyDown_0
 0001:00086F94       CopyUnwindDown_0
 0001:00086FA0       CopyLeadDown_0
 0001:00086FB8       ByteCopyDown_0
 0001:00086FF0       LeadDown2_0
 0001:00087018       LeadDown3_0
 0001:0008706C       UnwindDown7_0
 0001:00087074       UnwindDown6_0
 0001:0008707C       UnwindDown5_0
 0001:00087084       UnwindDown4_0
 0001:0008708C       UnwindDown3_0
 0001:00087094       UnwindDown2_0
 0001:0008709C       UnwindDown1_0
 0001:000870AF       UnwindDown0_0
 0001:000870C8       TrailDown0_0
 0001:000870D0       TrailDown1_0
 0001:000870E0       TrailDown2_0
 0001:000870F4       TrailDown3_0
 0001:0008710D       ___freetlocinfo
 0001:000871DD       ___updatetlocinfo_lk
 0001:0008729E       ___updatetlocinfo
 0001:000872D0       ___updatetlocinfo_call__unlock
 0001:000872D9       _CPtoLCID
 0001:00087308       _setSBCS
 0001:00087331       _setSBUpLow
 0001:000874BD       __setmbcp_lk
 0001:0008764D       __setmbcp
 0001:00087794       __setmbcp_sub_488794
 0001:0008779D       ___initmbctable
 0001:000877BB       _isdigit
 0001:000877F5       _isxdigit
 0001:00087834       _isspace
 0001:0008786E       _ungetc
 0001:000878DA       ___mbtowc_mt
 0001:0008799A       _mbtowc
 0001:000879C5       __resetstkoflw
 0001:00087AB0       __allmul
 0001:00087AE4       __lseeki64_lk
 0001:00087B67       ___tolower_mt
 0001:00087C2F       _tolower
 0001:00087C51       __ZeroTail
 0001:00087C83       __IncMan
 0001:00087CD0       __RoundMan
 0001:00087D42       __CopyMan
 0001:00087D5D       __IsZeroMan
 0001:00087D76       __ShrMan
 0001:00087DF1       __ld12cvt
 0001:00087F49       __ld12cvt_wrapper
 0001:00087F5F       __fassign_sub_sub_488F5F
 0001:00087F75       __fassign_sub_488F75
 0001:00087FB2       __fassign_sub_488FB2
 0001:00087FEF       __fptostr
 0001:00088066       ___dtold
 0001:00088120       __fltout2
 0001:0008818C       _fptrap
 0001:00088195       __abstract_cw
 0001:00088227       __hw_cw
 0001:000882B5       __control87
 0001:000882E7       __controlfp
 0001:000882FD       __87except
 0001:000883F5       __onexit_lk
 0001:00088475       ___onexitinit
 0001:0008849D       __onexit
 0001:000884CF       __onexit_call___unlockexit
 0001:000884D5       _atexit
 0001:000884E7       _x_ismbbtype
 0001:0008851A       __ismbblead
 0001:0008852B       __chsize_lk
 0001:0008866C       __free_lc_time
 0001:000887FC       ___free_lconv_num
 0001:0008885B       ___free_lconv_mon
 0001:00088940       _strcspn
 0001:00088954       listnext
 0001:00088963       listdone
 0001:0008896C       dstnext
 0001:0008897E       dstdone
 0001:00088986       ___crtGetStringTypeA
 0001:00088B40       _strncmp
 0001:00088B5A       okay
 0001:00088B6D       firstbig
 0001:00088B70       lastbig
 0001:00088B72       toend_0
 0001:00088B80       _strpbrk
 0001:00088B94       listnext_0
 0001:00088BA3       listdone_0
 0001:00088BA8       dstnext_0
 0001:00088BBA       dstdone_0
 0001:00088BC0       ___crtLCMapStringA
 0001:00088F7C       ___isctype_mt
 0001:00088FF3       ___addl
 0001:00089014       ___add_12
 0001:00089072       ___shl_12
 0001:000890A0       ___shr_12
 0001:000890CD       ___mtold12
 0001:000891AB       ___strgtold12
 0001:000895DF       _$I10_OUTPUT
 0001:0008986D       __raise_exc
 0001:00089B12       __handle_exc
 0001:00089D36       __set_errno
 0001:00089D5E       Return_0
 0001:00089D61       __statfp
 0001:00089D6C       __clrfp
 0001:00089D78       __ctrlfp
 0001:00089D9C       __set_statfp
 0001:00089DF2       _realloc
 0001:00089F52       _realloc_sub_48AF52
 0001:00089F5A       _realloc_sub_48AF5A
 0001:00089F9F       __msize
 0001:0008A009       __msize_sub_48B009
 0001:0008A00C       __msize_sub_48B00C
 0001:0008A015       __setmode_lk
 0001:0008A090       ___ascii_stricmp
 0001:0008A0A0       chk_null
 0001:0008A0D6       done_0
 0001:0008A0DE       _atol
 0001:0008A166       _xtoa
 0001:0008A1A4       __itoa
 0001:0008A1CE       ___ansicp
 0001:0008A211       ___convertcp
 0001:0008A3DA       ___ld12mul
 0001:0008A60C       ___multtenpow12
 0001:0008A692       __set_exp
 0001:0008A6BC       __decomp
 0001:0008A780       ___ascii_strnicmp
 0001:0008A79C       lupe
 0001:0008A7B8       skip1
 0001:0008A7C2       skip2
 0001:0008A7CB       eject
 0001:0008A7D1       differ
 0001:0008A7F0       found_bx
 0001:0008A800       _strchr
 0001:0008A806       ___from_strstr_to_strchr
 0001:0008A818       str_misaligned_0
 0001:0008A82D       main_loop_start
 0001:0008A876       retnull_bx
 0001:0008A87A       chr_is_found
 0001:0008A8BE       VerQueryValueA
 0001:0008A8C4       GetFileVersionInfoA
 0001:0008A8CA       GetFileVersionInfoSizeA
 0001:0008A8D0       ImmReleaseContext
 0001:0008A8D6       ImmSetOpenStatus
 0001:0008A8DC       ImmGetContext
 0001:0008A8E2       RtlUnwind
 0001:0008A8F0       Init_OrgData
 0002:00000270       aArmsitem_tsc
 0002:00000280       format
 0002:0000028C       aRb
 0002:00000290       aDoukutsu200412
 0002:000002A4       aConfig_dat
 0002:000002B0       aSS
 0002:000002B8       aRb_0
 0002:000002BC       aVersion_D_D_D_
 0002:000002FC       String
 0002:00000304       aSS_pbm_0
 0002:00000310       Error_String
 0002:0000031C       aExisting
 0002:00000328       aSS_pbm_1
 0002:00000334       aSurfaceNo_0
 0002:00000340       aGeneric
 0002:00000348       aSOut_txt
 0002:00000354       aAT_1
 0002:00000358       aC
 0002:0000035C       aCredit02d
 0002:00000368       aCredit_tsc
 0002:00000374       aSS_0
 0002:0000037C       aRb_1
 0002:00000380       aCasts
 0002:00000388       Caption
 0002:00000390       Text
 0002:000003A8       aSNpc_tbl
 0002:000003B4       aGggib_0
 0002:000003BC       aNpcgebGuglvkuV
 0002:000003D4       aWindow_rect
 0002:000003E0       aXxx
 0002:000003E4       aJan
 0002:000003E8       aFeb
 0002:000003EC       aMar
 0002:000003F0       aApr
 0002:000003F4       aMay
 0002:000003F8       aJun
 0002:000003FC       aJul
 0002:00000400       aAug
 0002:00000404       aSep
 0002:00000408       aOct
 0002:0000040C       aNov
 0002:00000410       aDec
 0002:00000414       aSDD
 0002:00000420       string
 0002:00000430       aSSndvol32_exe
 0002:00000440       aSSndvol32_ex_0
 0002:00000450       Operation
 0002:00000458       aOpen_0
 0002:00000460       debug.txt
 0002:00000470       debug_txt
 0002:00000480       mode
 0002:00000484       aSDDD
 0002:00000494       aSS_1
 0002:0000049C       aRb_2
 0002:000004A0       aError_log
 0002:000004AC       aSS_2
 0002:000004B4       aAT_0
 0002:000004B8       _stream
 0002:000004D8       Pixel_Copyright_String
 0002:000004E4       aRb_15
 0002:000004E8       aPIXEL
 0002:000004F0       aMychar
 0002:000004F8       aTitle
 0002:00000500       aArmsimage
 0002:0000050C       aArms
 0002:00000514       aItemimage
 0002:00000520       aStageimage
 0002:0000052C       aNpcNpcsym
 0002:00000538       aNpcNpcregu
 0002:00000544       aTextbox
 0002:0000054C       aCaret
 0002:00000554       aBullet
 0002:0000055C       aFace
 0002:00000564       aFade
 0002:0000056C       Ptr_Graphic
 0002:00000578       aPixtoneDByte
 0002:0000058C       aDeviceguidX
 0002:000005A0       aUMaxim
 0002:000005AC       aS_1
 0002:000005B0       aDoukutsu
 0002:000005BC       src
 0002:000005C4       aS_reverse
 0002:000005D0       CursorName
 0002:000005E0       iconName
 0002:000005E4       IconName
 0002:000005F0       aMenu_main
 0002:000005FC       name
 0002:00000604       aMute
 0002:0000060C       aFps
 0002:00000610       aWindow_rect_0
 0002:0000061C       aQuit_
 0002:00000624       TemplateName
 0002:00000630       aDlg_about
 0002:0000063C       aGGkgebGarTsv
 0002:0000064B       aLnuovVlvVVVVV
 0002:00000664       aDlg_save
 0002:00000670       aDlg_mute
 0002:0000067C       aPxm
 0002:00000680       aSS_5
 0002:00000688       aRb_4
 0002:0000068C       aSS_6
 0002:00000694       aRb_5
 0002:0000069C       SrcStr
 0002:000006A0       aS290_rec
 0002:000006AC       aRb_6
 0002:000006B0       aWb_0
 0002:000006B4       aS290_rec_0
 0002:000006C0       aRb_7
 0002:000006C4       Type
 0002:000006CC       Name
 0002:000006D4       aOrg
 0002:00000700       Profile.dat
 0002:0000070C       Profile.dat_Check
 0002:00000718       aSS_7
 0002:00000720       aFlag
 0002:00000728       aSS_8
 0002:00000730       aSS_9
 0002:00000738       aWb_1
 0002:0000073C       aS
 0002:00000740       aSS_10
 0002:00000748       aRb_8
 0002:0000074C       aGggib_1
 0002:00000754       aGxgebGwvUVNuvV
 0002:00000770       aStageselect_ts
 0002:00000780       aOrgWave_dat
 0002:00000790       aOrgWave_dat_0
 0002:000007A0       aWave_0
 0002:000007A8       aSS_11
 0002:000007B0       aRb_9
 0002:000007B4       aRiff
 0002:000007BC       aFmt
 0002:000007C4       aWave_1
 0002:000007CC       aData_0
 0002:000007D4       aStage
 0002:000007DC       aSPrtS
 0002:000007E8       aSS_pxa
 0002:000007F4       aSS_pxm
 0002:00000800       aSS_pxe
 0002:0000080C       aSS_tsc
 0002:00000818       aS_0
 0002:0000081C       aNpc
 0002:00000820       aSNpcS
 0002:0000082C       aSNpcS_0
 0002:00000838       aXxxx
 0002:00000840       aWanpaku
 0002:00000848       aAnzen
 0002:00000850       aGameover
 0002:0000085C       aGravity
 0002:00000864       aWeed
 0002:0000086C       aMdown2
 0002:00000874       aFireeye
 0002:0000087C       aVivi
 0002:00000884       aMura
 0002:0000088C       aFanfale1
 0002:00000898       aGinsuke
 0002:000008A0       aCemetery
 0002:000008AC       aPlant
 0002:000008B4       aKodou
 0002:000008BC       aFanfale3
 0002:000008C8       aFanfale2
 0002:000008D4       aDr
 0002:000008D8       aEscape
 0002:000008E0       aJenka
 0002:000008E8       aMaze
 0002:000008F0       aAccess
 0002:000008F8       aIronh
 0002:00000900       aGrand
 0002:00000908       aCurly
 0002:00000910       aOside
 0002:00000918       aRequiem
 0002:00000920       aWanpak2
 0002:00000928       aQuiet
 0002:00000930       aLastcave
 0002:0000093C       aBalcony
 0002:00000944       aLastbtl
 0002:0000094C       aLastbt3
 0002:00000954       aEnding
 0002:0000095C       aZonbie
 0002:00000964       aBdown
 0002:0000096C       aHell
 0002:00000974       aJenka2
 0002:0000097C       aMarine
 0002:00000984       aBallos
 0002:0000098C       aToroko
 0002:00000994       aWhite
 0002:0000099C       aSS_12
 0002:000009A4       aRb_10
 0002:000009A8       aHead_tsc
 0002:000009B4       aSS_13
 0002:000009BC       aRb_11
 0002:000009C0       aSS_14
 0002:000009C8       aRb_12
 0002:000009CC       aGggib_2
 0002:000009D4       aGxgebGwvUVNu_0
 0002:000009F0       aXscVGrbGhCCC
 0002:00000A08       aGggib_3
 0002:00000A30       aPxe
 0002:00000A34       aSS_15
 0002:00000A3C       aRb_13
 0002:00000A40       aRb_14
 0002:00000A48       aVcdy_Dest
 0002:00000AF4       aMicrosoftVisua
 0002:00000B1C       source
 0002:00000B2C       a___
 0002:00000B30       aProgramNameUnk
 0002:00000B48       aABufferOverrun
 0002:00000BE8       aBufferOverrunD
 0002:00000C08       aASecurityError
 0002:00000CBC       aUnknownSecurit
 0002:00000D14       aPH
 0002:00000DA4       aNull_0
 0002:00000DCC       aEh
 0002:00000DD8       aFlsfree
 0002:00000DE0       aFlssetvalue
 0002:00000DEC       aFlsgetvalue
 0002:00000DF8       ProcName
 0002:00000E04       ModuleName
 0002:00000E44       aE000
 0002:00000E68       aIsprocessorfea
 0002:00000E84       aKernel32
 0002:00000ED4       aCorexitprocess
 0002:00000EE4       aMscoree_dll
 0002:00000EF0       offset_reg_changing
 0002:00000EFC       aRuntimeError
 0002:00000F10       aTlossError
 0002:00000F20       aSingError
 0002:00000F30       aDomainError
 0002:00000F40       aR6029ThisApplicationCannotRunUsingTheActiveVersionOf
 0002:000010A4       aR6024NotEnoughSpaceFor_onexitAtexitTable
 0002:000010DC       aR6019UnableToOpenConsoleDevice
 0002:00001108       aR6018UnexpectedHeapError
 0002:0000112C       aR6017UnexpectedMultithreadLockError
 0002:0000115C       aR6016NotEnoughSpaceForThreadData
 0002:0000118A       aThisApplicationHasRequestedTheRuntimeToTerminateItInAn
 0002:00001220       aR6009NotEnoughSpaceForEnvironment
 0002:0000124C       aR6008NotEnoughSpaceForArguments
 0002:00001278       aR6002FloatingP
 0002:000012A0       aRuntimeErrorPr
 0002:000012DC       aGetprocesswind
 0002:000012F4       aGetuserobjecti
 0002:00001310       aGetlastactivep
 0002:00001324       aGetactivewindo
 0002:00001334       aMessageboxa
 0002:00001340       LibFileName
 0002:0000136C       aUh
 0002:000013B4       aInitializecrit
 0002:00001550       aDddddddddd
 0002:00001572       aBbbbbb
 0002:000015B2       aVvvvvv
 0002:000016F2       aHHDddddddddd
 0002:000017A8       aVVVVVV
 0002:000019F7       a_0123456789@
 0002:00001AA4       aHhMmSs
 0002:00001AB0       aDdddMmmmDdYyyy
 0002:00001AC4       aMmDdYy
 0002:00001AD0       aPmam
 0002:00001AD8       aDecember
 0002:00001AE4       aNovember
 0002:00001AF0       aOctober
 0002:00001AF8       aSeptember
 0002:00001B04       aAugust
 0002:00001B0C       aJuly
 0002:00001B14       aJune
 0002:00001B1C       aApril
 0002:00001B24       aMarch
 0002:00001B2C       aFebruary
 0002:00001B38       aJanuary
 0002:00001B40       aDec_0
 0002:00001B44       aNov_0
 0002:00001B48       aOct_0
 0002:00001B4C       aSep_0
 0002:00001B50       aAug_0
 0002:00001B54       aJul_0
 0002:00001B58       aJun_0
 0002:00001B5C       aMay_0
 0002:00001B60       aApr_0
 0002:00001B64       aMar_0
 0002:00001B68       aFeb_0
 0002:00001B6C       aJan_0
 0002:00001B70       aSaturday
 0002:00001B7C       aFriday
 0002:00001B84       aThursday
 0002:00001B90       aWednesday
 0002:00001B9C       aTuesday
 0002:00001BA4       aMonday
 0002:00001BAC       aSunday
 0002:00001BB4       aSat
 0002:00001BB8       aFri
 0002:00001BBC       aThu
 0002:00001BC0       aWed
 0002:00001BC4       aTue
 0002:00001BC8       aMon
 0002:00001BCC       aSun
 0002:00001BFC       aDah
 0002:00001C00       aIah
 0002:00001C04       a1Qnan
 0002:00001C0C       a1Inf
 0002:00001C14       a1Ind
 0002:00001C1C       a1Snan
 0002:00001C24       a_nextafter
 0002:00001C30       a_logb
 0002:00001C38       a_yn
 0002:00001C3C       a_y1
 0002:00001C40       a_y0
 0002:00001C44       aFrexp
 0002:00001C4C       aFmod
 0002:00001C54       a_hypot
 0002:00001C5C       a_cabs
 0002:00001C64       aLdexp
 0002:00001C6C       aModf
 0002:00001C74       aFabs
 0002:00001C7C       aFloor
 0002:00001C84       aCeil
 0002:00001C8C       aTan
 0002:00001C90       aCos
 0002:00001C94       aSin
 0002:00001C98       aSqrt
 0002:00001CA0       aAtan2
 0002:00001CA8       aAtan
 0002:00001CB0       aAcos
 0002:00001CB8       aAsin
 0002:00001CC0       aTanh
 0002:00001CC8       aCosh
 0002:00001CD0       aSinh
 0002:00001CD8       aLog10
 0002:00001CE0       aLog
 0002:00001CE4       aPow
 0002:00001CE8       aExp
 0002:00001D0C       aSunmontuewedthufrisat
 0002:00001D24       aJanfebmaraprmayjunjulaugsepoctnovdec
 0002:00001D62       aMg
 0002:00001D68       aDest
 0002:00001D70       aF
 0002:00001D72       aMg_0
 0002:00001D78       aDest_0
 0002:00001D80       aU_0
 0002:00001D82       aMg_1
 0002:00001D88       aDest_1
 0002:00001D90       aMgDest
 0002:00001DA0       aMgDest_0
 0002:00001DB0       aTMgDest
 0002:00001DC0       aSMgDest
 0002:00001DD0       aRMgDest
 0002:00001DF0       a@
 0002:00001DFC       aJt
 0002:00001E04       aSr
 0002:00001E10       aDf
 0002:00001E24       aNx
 0002:00001E2C       aAr
 0002:00001E38       aIx
 0002:00001E3C       aA_1
 0002:00001E40       aR
 0002:00001E54       aS_2
 0002:00001E60       aSx
 0002:00001E74       aC_0
 0002:00001E7C       aS_3
 0002:00001E88       aVc
 0002:00001E90       aRr
 0002:00001E9C       aXc
 0002:00001EA4       a0_0
 0002:00001EB0       aC_1
 0002:00001EB4       aP
 0002:00001EB8       aS_4
 0002:00001EC4       aC_2
 0002:00001EF8       aF_0
 0002:00001EFC       aPx
 0002:00001F00       aF_1
 0002:00001F08       aF_2
 0002:00001F0C       a@x
 0002:00001F10       a4x
 0002:00001F20       aF_3
 0002:00001F24       aF_4
 0002:00001F28       aF_5
 0002:00001F30       aMc
 0002:00001F34       aSc
 0002:00001F38       aDc
 0002:00001F40       aNi
 0002:00001F44       aI
 0002:00001F48       aI_0
 0002:00001F4C       aI_1
 0002:00001F50       aI_2
 0002:00001F58       aC_3
 0002:00001F68       aU_1
 0002:00001F6C       aT
 0002:00001F8C       aS_5
 0002:00001F90       aS_6
 0002:00001F94       aVt
 0002:00001F98       aFt
 0002:00001F9C       aVt_0
 0002:00001FA0       aHt
 0002:00001FA4       a8t
 0002:00001FA8       aT_0
 0002:00001FAC       aT_1
 0002:00001FB0       aT_2
 0002:00001FB4       aS_7
 0002:00001FB8       aSs
 0002:00001FBC       aS_8
 0002:00001FC0       aS_9
 0002:00001FC4       aKs
 0002:00001FC8       aRs
 0002:00001FCC       aS_10
 0002:00001FD0       aS_11
 0002:00001FD4       aOs
 0002:00001FD8       aAs
 0002:00001FDC       aKs_0
 0002:00001FE0       aTs
 0002:00001FE4       aXs
 0002:00001FE8       aS_12
 0002:00001FEC       aBs
 0002:00001FF0       a2s
 0002:00001FF4       aS_13
 0002:00001FF8       aS_15
 0002:00001FFC       aS_14
 0002:00002000       aHs
 0002:00002004       aPs
 0002:00002008       aJ
 0002:0000200C       aS_16
 0002:00002010       aS_17
 0002:00002014       aS_18
 0002:00002018       aS_19
 0002:0000201C       aS_20
 0002:00002020       aS_21
 0002:00002024       a2c
 0002:00002028       a@c
 0002:0000202C       aLc
 0002:00002030       aXc_0
 0002:00002034       aJc
 0002:00002038       aC_4
 0002:0000203C       aMc_0
 0002:00002040       aJc_0
 0002:00002044       aC_5
 0002:00002048       aC_6
 0002:0000204C       aC_7
 0002:00002050       aC_8
 0002:00002054       aS_22
 0002:00002058       aS_23
 0002:0000205C       a8s
 0002:00002060       aFs
 0002:00002064       aTs_0
 0002:00002068       aBs_0
 0002:0000206C       aZs
 0002:00002070       aKs_1
 0002:00002074       aSs_0
 0002:00002078       aDs
 0002:00002080       aIx_0
 0002:00002084       aCx
 0002:00002088       aXx
 0002:00002090       aBc
 0002:00002098       aT_3
 0002:0000209C       aT_4
 0002:000020A0       aT_5
 0002:000020A4       aU_2
 0002:000020A8       aU_3
 0002:000020AC       aU_4
 0002:000020B0       aT_6
 0002:000020B4       aAt
 0002:000020B8       aFt_0
 0002:000020BC       aT_7
 0002:000020C0       aFf
 0002:000020C4       aJf
 0002:000020C8       aRf
 0002:000020CC       aF_6
 0002:000020D0       aPf
 0002:000020D4       aBf
 0002:000020D8       a0f
 0002:000020DC       aF_7
 0002:000020E0       aF_8
 0002:000020E4       aU_5
 0002:000020E8       aUu
 0002:000020EC       aTu
 0002:000020F0       aU_6
 0002:000020F4       aU_7
 0002:000020F8       aU_8
 0002:000020FC       aDu
 0002:00002100       aTu_0
 0002:00002104       aU_9
 0002:00002108       aHu
 0002:0000210C       aZu
 0002:00002110       aLu
 0002:00002114       a4u
 0002:0000211C       aC_9
 0002:00002120       aC_10
 0002:00002124       aC_11
 0002:0000212C       aC_12
 0002:00002130       aC_13
 0002:00002134       aC_14
 0002:00002138       aC_15
 0002:0000213C       aC_16
 0002:00002140       aC_17
 0002:00002148       aG
 0002:0000214A       aSleep
 0002:00002152       aGettickcount
 0002:00002160       aW
 0002:00002162       aGetmodulehandlea
 0002:00002174       aU_10
 0002:00002176       aGetmodulefilenamea
 0002:0000218C       aGetsystemdirectorya
 0002:000021A2       aDeletefilea
 0002:000021AE       a3
 0002:000021B0       aComparefiletime
 0002:000021C2       aSystemtimetofiletime
 0002:000021DA       aGetsystemtime
 0002:000021E8       a_
 0002:000021EA       aClosehandle
 0002:000021F8       aGetfilesize
 0002:00002204       aM
 0002:00002206       aCreatefilea
 0002:00002212       aB
 0002:00002214       aOutputdebugstringa
 0002:0000222A       aReleasemutex
 0002:00002238       aZ
 0002:0000223A       aCreatemutex
 0002:00002245       aA_2
 0002:0000224A       aOpenmutex
 0002:00002253       aA_3
 0002:00002258       aLockresource
 0002:00002266       aM_0
 0002:00002268       aLoadresource
 0002:00002278       aFindresourcea
 0002:00002286       aKernel32_dll
 0002:00002296       aEnddialog
 0002:000022A0       aS_24
 0002:000022A2       aSetdlgitemtexta
 0002:000022B2       aG_0
 0002:000022B4       aIsdlgbuttonchecked
 0002:000022C8       a8
 0002:000022CA       aCheckdlgbutton
 0002:000022DC       aGetdlgitemtexta
 0002:000022EC       aT_8
 0002:000022EE       aGetwindowrect
 0002:000022FE       aLoadimagea
 0002:0000230C       aMessageboxa_0
 0002:00002318       aG_1
 0002:0000231A       aSetwindowpos
 0002:00002328       aE
 0002:0000232A       aGetparent
 0002:00002334       aS_25
 0002:00002336       aSystemparametersinfoa
 0002:0000234C       aT_9
 0002:0000234E       aShowwindow
 0002:0000235A       aI_3
 0002:0000235C       aMovewindow
 0002:0000236A       aGetsystemmetrics
 0002:0000237C       aS_26
 0002:0000237E       aGetwindowplacement
 0002:00002392       aJ_0
 0002:00002394       aSetwindowtexta
 0002:000023A4       aO
 0002:000023A6       aShowcursor
 0002:000023B4       aGetmenu
 0002:000023BE       aCreatewindowexa
 0002:000023D0       aRegisterclassexa
 0002:000023E4       aLoadicona
 0002:000023F0       aLoadcursora
 0002:000023FE       aPostquitmessage
 0002:00002410       aPostmessagea
 0002:0000241E       aU_11
 0002:00002420       aDialogboxparama
 0002:00002430       aO_0
 0002:00002432       aDefwindowproca
 0002:00002444       aDrawmenubar
 0002:00002450       aS_27
 0002:00002452       aDeletemenu
 0002:0000245E       aB_0
 0002:00002460       aDispatchmessagea
 0002:00002472       aK
 0002:00002474       aTranslatemessage
 0002:00002488       aGetmessagea
 0002:00002496       aPeekmessagea
 0002:000024A4       aUser32_dll
 0002:000024B0       aM_1
 0002:000024B2       aDeletedc
 0002:000024BC       aI_4
 0002:000024BE       aStretchblt
 0002:000024CC       aSelectobject
 0002:000024DC       aCreatecompatibledc
 0002:000024F2       aGetobjecta
 0002:000024FE       aP_0
 0002:00002500       aDeleteobject
 0002:0000250E       a1
 0002:00002510       aSetpixel
 0002:0000251C       aGetpixel
 0002:00002526       a9
 0002:00002528       aCreatefonta
 0002:00002534       aN
 0002:00002536       aTextouta
 0002:00002542       aSettextcolor
 0002:00002552       aSetbkmode
 0002:0000255C       aE_0
 0002:0000255E       aGetstockobject
 0002:0000256E       aGdi32_dll
 0002:0000257A       aShellexecutea
 0002:0000258A       aDragfinish
 0002:00002598       aDragqueryfilea
 0002:000025A8       aShell32_dll
 0002:000025B6       aDirectdrawcreate
 0002:000025C8       aDdraw_dll
 0002:000025D4       aDirectinputcreate
 0002:000025E8       aDinput_dll
 0002:000025F6       aDirectsoundcreate
 0002:00002608       aDsound_dll
 0002:00002616       aVerqueryvaluea
 0002:00002628       aGetfileversioninfoa
 0002:0000263E       aGetfileversioninfosizea
 0002:00002656       aVersion_dll
 0002:00002662       aK_0
 0002:00002664       aPathremovefilespeca
 0002:00002678       aShlwapi_dll
 0002:00002684       aF_9
 0002:00002686       aImmreleasecontext
 0002:00002698       aV
 0002:0000269A       aImmsetopenstatus
 0002:000026AC       a5
 0002:000026AE       aImmgetcontext
 0002:000026BC       aImm32_dll
 0002:000026C6       aQ
 0002:000026C8       aTimebeginperiod
 0002:000026D8       aB_1
 0002:000026DA       aTimegetdevcaps
 0002:000026EA       aE_1
 0002:000026EC       aTimesetevent
 0002:000026FA       aG_2
 0002:000026FC       aTimegettime
 0002:00002708       aA_4
 0002:0000270A       aTimeendperiod
 0002:00002718       aD
 0002:0000271A       aTimekillevent
 0002:00002728       aWinmm_dll
 0002:00002732       aP_1
 0002:00002734       aExitprocess
 0002:00002742       aHeapfree
 0002:0000274E       aHeapalloc
 0002:00002758       aP_2
 0002:0000275A       aGetstartupinfoa
 0002:0000276C       aGetcommandlinea
 0002:0000277E       aGetversionexa
 0002:0000278C       aC_18
 0002:0000278E       aQueryperformancecounter
 0002:000027A8       aGetcurrentthreadid
 0002:000027BE       aGetcurrentprocessid
 0002:000027D4       aGetsystemtimeasfiletime
 0002:000027EC       aI_5
 0002:000027EE       aGetlasterror
 0002:000027FC       aP_3
 0002:000027FE       aEntercriticalsection
 0002:00002814       aG_3
 0002:00002816       aLeavecriticalsection
 0002:0000282C       aI_6
 0002:0000282E       aReadfile
 0002:0000283A       aHeapdestroy
 0002:00002848       aHeapcreate
 0002:00002854       aV_0
 0002:00002856       aVirtualfree
 0002:00002862       aZ_0
 0002:00002864       aDeletecriticalsection
 0002:0000287A       aS_28
 0002:0000287C       aVirtualalloc
 0002:0000288C       aHeaprealloc
 0002:00002898       aT_10
 0002:0000289A       aTlsalloc
 0002:000028A6       aSetlasterror
 0002:000028B4       aU_12
 0002:000028B6       aTlsfree
 0002:000028BE       aW_0
 0002:000028C0       aTlssetvalue
 0002:000028CC       aV_1
 0002:000028CE       aTlsgetvalue
 0002:000028DA       aS_29
 0002:000028DC       aGetprocaddress
 0002:000028EC       aF_10
 0002:000028EE       aWritefile
 0002:000028FA       aSetfilepointer
 0002:0000290A       aO_1
 0002:0000290C       aTerminateprocess
 0002:00002920       aGetcurrentprocess
 0002:00002934       aGetstdhandle
 0002:00002944       aUnhandledexceptionfilter
 0002:0000295E       aA_5
 0002:00002960       aFreeenvironmentstringsa
 0002:00002978       aM_2
 0002:0000297A       aGetenvironmentstrings
 0002:00002990       aU_13
 0002:00002992       aFreeenvironmentstringsw
 0002:000029AA       aZ_1
 0002:000029AC       aWidechartomultibyte
 0002:000029C0       aO_2
 0002:000029C2       aGetenvironmentstringsw
 0002:000029DC       aSethandlecount
 0002:000029EE       aGetfiletype
 0002:000029FC       aLoadlibrarya
 0002:00002A0C       aRtlunwind
 0002:00002A18       aInterlockedexchange
 0002:00002A2E       aVirtualquery
 0002:00002A3E       aSetstdhandle
 0002:00002A4E       aFlushfilebuffers
 0002:00002A62       aInitializecriticalsection
 0002:00002A7E       aGetacp
 0002:00002A88       aGetoemcp
 0002:00002A94       aGetcpinfo
 0002:00002A9E       aK_1
 0002:00002AA0       aMultibytetowidechar
 0002:00002AB4       aY
 0002:00002AB6       aVirtualprotect
 0002:00002AC8       aGetsysteminfo
 0002:00002AD8       aSetendoffile
 0002:00002AE8       aGetlocaleinfoa
 0002:00002AFA       aGetstringtypea
 0002:00002B0C       aGetstringtypew
 0002:00002B1E       aLcmapstringa
 0002:00002B2E       aLcmapstringw
 0002:00002B3C       aI_7
 0002:00002B3E       aRaiseexception
 0002:00002B50       aHeapsize
 0002:00002FD0       aCaveStoryDouku
 0003:00000018       aAzh
 0003:0000001C       aUfh
 0003:00000040       weaponIconXOffset
 0003:00000048       weaponDataDamage
 0003:00000180       aD_0
 0003:000001AC       aD_1
 0003:000001D8       aD_2
 0003:00000830       effectDataViewLeft
 0003:000008C0       effectFunctionTable
 0003:00000908       DOUKUTSU20041206
 0003:0000090C       configDat
 0003:00000910       versionString
 0003:00000914       graphicScale
 0003:0000091C       gameRect
 0003:00000924       RenderWidth
 0003:00000928       RenderHeight
 0003:0000092C       rect
 0003:0000093C       Image_Tag
 0003:00000940       Snd_Data_Table
 0003:00000A20       Ptr_Sound
 0003:00000D58       aFfffffc5
 0003:00004464       Timer1000Init
 0003:00004610       keyJump
 0003:00004614       keyShoot
 0003:00004618       keyNextWeapon
 0003:0000461C       keyPreviousWeapon
 0003:00004620       keyMenu
 0003:00004624       keyForMap
 0003:00004628       keyOk
 0003:0000462C       keyCancel
 0003:00004630       keyLeft
 0003:00004634       keyUp
 0003:00004638       keyRight
 0003:0000463C       keyDown
 0003:00004640       windowName
 0003:00004648       pDoukutsu
 0003:0000464C       PXM
 0003:00004660       Weapon_Level_Table
 0003:00004708       oct_wave
 0003:00004738       format_tbl2
 0003:0000474C       frequencyTable
 0003:00004764       panTable
 0003:00004780       old_key
 0003:00004790       buf2
 0003:00004798       aOrg02
 0003:000047A0       ExactTime
 0003:000047A4       musicVolume
 0003:000047A8       defaultProfileName
 0003:000047AC       pProfileCheck
 0003:000047B0       mapHeaders
 0003:000091E8       songNames
 0003:00009540       PassPixEve
 0003:00009548       NPC_Function_Table
 0003:00009AEC       Boss_Function_Table
 0003:00009B20       __security_cookie
 0003:00009B64       ertn
 0003:00009F68       _locktable
 0003:0000A088       Minus_1
 0003:0000A4E0       max
 0003:0000A748       aPst
 0003:0000A788       aPdt
 0003:0000AB3C       quoteInventoryMinus1
 0003:0000AB40       quoteInventory
 0003:0000ABC0       inventoryActive
 0003:0000ABC4       inventoryLabelPosition
 0003:0000ABC8       gWeapons
 0003:0000AC68       selectedWeapon
 0003:0000AC6C       selectedItem
 0003:0000AC70       menuRectFlash
 0003:0000AC74       currentBackground
 0003:0000AC90       globalWaterDepth
 0003:0000AC94       _color_black
 0003:0000AC98       bulletObjects
 0003:0000CCA8       effectObjects
 0003:0000DDA8       screenOffsetX
 0003:0000DDAC       screenOffsetY
 0003:0000DDB0       windowIdk
 0003:0000DDC0       directDrawIsFullscreen
 0003:0000DDC4       clipListMaybe
 0003:0000DDC8       namesThingy
 0003:0000E368       fontHandle
 0003:0000E374       fullscreenSurfaceHeight
 0003:0000E378       windowSurfaceWidth
 0003:0000E37C       directDrawObject
 0003:0000E380       directDrawFinalScreenSurface
 0003:0000E384       directDrawScreenSurface
 0003:0000E388       imageResSurface
 0003:0000E398       DD7_SurfaceB_Blt
 0003:0000E3C8       DD7_SurfaceB_GetDC
 0003:0000E3E8       DD7_SurfaceB_Lock
 0003:0000E3EC       DD7_SurfaceB_ReleaseDC
 0003:0000E428       finalScreenDistRects
 0003:0000E438       previousTickCount
 0003:0000E43C       currentTickCount
 0003:0000E440       RECT_ScreenCopy
 0003:0000E450       DDBLTFX_ScreenCopy
 0003:0000E4B4       finalDestinationRect1
 0003:0000E4C4       rectWork
 0003:0000E4D4       Final_Dst_Rect_2
 0003:0000E4E4       Final_Src_Rect_2
 0003:0000E4F4       Final_Dst_Rect_3
 0003:0000E504       Final_Src_Rect_3
 0003:0000E514       Dest_Rect
 0003:0000E528       Draw_Colour_Fill_DDBLTFX
 0003:0000E578       Draw_Colour_Fill_DDBLTFX_dxFillColor
 0003:0000E58C       Final_Dst_Rect_5
 0003:0000E5A0       Draw_Colour_Fill_Onto_Surface_DDBLTFX
 0003:0000E5F0       Draw_Colour_Fill_Onto_Surface_DDBLTFX_dxFillColor
 0003:0000E608       creditPicture
 0003:0000E610       creditScript
 0003:0000E628       textObjectArray
 0003:0000EB28       Mask_Color
 0003:0000EB30       fadeObject
 0003:0000ED98       skipFlags
 0003:0000EDA0       eventFlags
 0003:0000F188       Flash
 0003:0000F1C4       FlashColor
 0003:0000F1C8       gCamera
 0003:0000F1E4       cursorPosition
 0003:0000F1E8       gameFlags
 0003:0000F1EC       gameTime
 0003:0000F1F0       DirectInputObj
 0003:0000F210       keyHeld
 0003:0000F214       keyPressed
 0003:0000F218       lastKeyHeld
 0003:0000F220       dataPath
 0003:0000F328       exePath
 0003:0000F42C       joystickButtonTable
 0003:0000F44C       appInstance
 0003:0000F450       windowWidth
 0003:0000F454       windowHeight
 0003:0000F458       appWinHandle
 0003:0000F45C       useJoystick
 0003:0000F460       isFullscreen
 0003:0000F464       FPSCounterEnabled
 0003:0000F468       canAcceptInput
 0003:0000F46C       Timer1000Time
 0003:0000F470       Timer1000Elapsed
 0003:0000F474       Timer1000Ticks
 0003:0000F478       hMutex
 0003:0000F47C       hObject
 0003:0000F480       currentMap
 0003:0000F58C       Draw_Map_Data_Vector::count
 0003:0000F590       Map_Name
 0003:0000F5B8       mapFlagArray
 0003:0000F638       quote
 0003:0000F6EC       Noise_Num
 0003:0000F6F0       Noise_Frequency
 0003:0000F6F4       Nikumaru_Counter
 0003:0000F700       wave_data
 0003:00015B00       playPosition
 0003:00015B08       np
 0003:00015B48       organBuffer
 0003:00015D48       mute
 0003:00015D88       key_on
 0003:00015D98       key_twin
 0003:00015DA8       TimerID
 0003:00015DAC       IsTimerActive
 0003:00015DB0       Note_Lengths
 0003:00015DD0       Track_Volume
 0003:00015E10       musicFadeFlagMaybe
 0003:00015E18       orgDataObject
 0003:00016500       unlockedStages
 0003:00016540       teleporterYPos
 0003:00016544       selectedSurface
 0003:0001654C       emptyEffectTimer
 0003:00016554       Machine_Gun_Reload_Timer
 0003:00016558       Bubbler_Lvl_1_Refill_Timer
 0003:00016568       secondaryBuffer
 0003:000167C0       drumBuffer
 0003:000167E8       lpDS
 0003:000167EC       lpPRIMARYBUFFER
 0003:000167F0       currentStageNumber
 0003:000167F4       currentSongNumber
 0003:000167F8       oldSongPosition
 0003:000167FC       oldSongNumber
 0003:00016800       whimsicalStars
 0003:000168CC       CurrentStarID
 0003:000168D0       textBuffer
 0003:00016AD4       size
 0003:00016AD8       scriptBuffer
 0003:00016AE0       scriptPosition
 0003:00016AE4       textColumn
 0003:00016B0C       faceNumber
 0003:00016B18       textBoxRelatedYPos
 0003:00016B1C       rcView
 0003:00016B34       numberTextScript
 0003:00016B48       sinTable
 0003:00016F48       gTan
 0003:00016F90       eventIndex
 0003:00016F98       eventInUse
 0003:00016F9C       eventCollision
 0003:00016FA0       eventXPos
 0003:00016FA4       eventYPos
 0003:00016FA8       eventXVel
 0003:00016FAC       eventYVel
 0003:00016FB0       eventAltXVel
 0003:00016FB4       eventAltYVel
 0003:00016FB8       eventUnknown1
 0003:00016FBC       eventUnknown2
 0003:00016FC0       Event.NPCID
 0003:00016FC4       Event.EntityID
 0003:00016FC8       Event.EventNum
 0003:00016FCC       Event.Tileset
 0003:00016FD0       Event.HurtSound
 0003:00016FD4       Event.DeathSound
 0003:00016FD8       Event.Health
 0003:00016FDC       Event.EXP
 0003:00016FE0       Event.DeathGraphic
 0003:00016FE4       Event.Direction
 0003:00016FE8       Event.Flags
 0003:00016FEC       Event_Rects
 0003:00016FFC       Event.FrameTimer
 0003:00017000       Event.FrameNum
 0003:00017004       Event.ObjectTimer
 0003:00017008       Event.Directive
 0003:0001700C       Event.ScriptState
 0003:00017010       Event.ScriptTimer
 0003:00017014       Event_Hitbox
 0003:00017024       Unknown_3
 0003:00017028       Unknown_2
 0003:0001702C       Unknown_1
 0003:00017030       Unknown_4
 0003:00017034       Event.HitTrue
 0003:00017038       Unknown_5
 0003:0001703C       Event.Damage
 0003:00017040       Event.Parent
 0003:00017220       NPCObjects
 0003:0002CA20       curlyShootWait
 0003:0002CA24       curlyShootX
 0003:0002CA28       curlyShootY
 0003:0002CA2C       superXPos
 0003:0002CA30       superYPos
 0003:0002CA34       NPCTable
 0003:0002CA36       NPCStruct_Health
 0003:0002CA38       NPCStruct_Tileset
 0003:0002CA39       npcStructDeathSound
 0003:0002CA3A       NPCStruct_HurtSnd
 0003:0002CA3B       NPCStruct_DeathAnim
 0003:0002CA3C       NPCStructExp
 0003:0002CA40       NPCStructDamage
 0003:0002CA44       bossThing
 0003:0002CA58       bossObjects
 0003:0002D7D4       _tenvptr
 0003:0002D7DC       __error_mode
 0003:0002D93C       newmode
 0003:0002D994       _exitflag
 0003:0002D9A8       Filename
 0003:0002DB10       Target
 0003:0002DB68       Locale
 0003:0002DC98       Locale_
 0003:0002DC9C       pBlock
 0003:0002DDC4       CodePage
 0003:0002DEE0       uNumber
 0003:0002DF00       _osfile
 0003:0002E008       memblock
 0003:0002E018       lpMem
 0003:0002E02C       Heap_Handle
 0003:0002E030       __active_heap
 0003:0002F040       _nstream
 0003:0002F044       _tcmdln

Program entry point at 0001:00080D27
